(lp0
I42822
a(lp1
(iRequest
Request
p2
(dp3
S'start'
p4
I32167
sS'end'
p5
I41540
sS'name'
p6
S'0'
p7
sba(iRequest
Request
p8
(dp9
g4
I24593
sg5
I25252
sg6
S'1'
p10
sba(iRequest
Request
p11
(dp12
g4
I5654
sg5
I14512
sg6
S'2'
p13
sba(iRequest
Request
p14
(dp15
g4
I15022
sg5
I16976
sg6
S'3'
p16
sba(iRequest
Request
p17
(dp18
g4
I4236
sg5
I9508
sg6
S'4'
p19
sba(iRequest
Request
p20
(dp21
g4
I5319
sg5
I13321
sg6
S'5'
p22
sba(iRequest
Request
p23
(dp24
g4
I802
sg5
I6102
sg6
S'6'
p25
sba(iRequest
Request
p26
(dp27
g4
I24440
sg5
I28158
sg6
S'7'
p28
sba(iRequest
Request
p29
(dp30
g4
I4727
sg5
I10312
sg6
S'8'
p31
sba(iRequest
Request
p32
(dp33
g4
I21960
sg5
I24526
sg6
S'9'
p34
sba(iRequest
Request
p35
(dp36
g4
I37189
sg5
I42030
sg6
S'10'
p37
sba(iRequest
Request
p38
(dp39
g4
I26448
sg5
I33879
sg6
S'11'
p40
sba(iRequest
Request
p41
(dp42
g4
I34849
sg5
I38676
sg6
S'12'
p43
sba(iRequest
Request
p44
(dp45
g4
I35172
sg5
I35451
sg6
S'13'
p46
sba(iRequest
Request
p47
(dp48
g4
I487
sg5
I7238
sg6
S'14'
p49
sba(iRequest
Request
p50
(dp51
g4
I18043
sg5
I27866
sg6
S'15'
p52
sba(iRequest
Request
p53
(dp54
g4
I23333
sg5
I32721
sg6
S'16'
p55
sba(iRequest
Request
p56
(dp57
g4
I18679
sg5
I28406
sg6
S'17'
p58
sba(iRequest
Request
p59
(dp60
g4
I25363
sg5
I28041
sg6
S'18'
p61
sba(iRequest
Request
p62
(dp63
g4
I12575
sg5
I21490
sg6
S'19'
p64
sba(iRequest
Request
p65
(dp66
g4
I231
sg5
I1730
sg6
S'20'
p67
sba(iRequest
Request
p68
(dp69
g4
I20674
sg5
I28996
sg6
S'21'
p70
sba(iRequest
Request
p71
(dp72
g4
I27793
sg5
I32326
sg6
S'22'
p73
sba(iRequest
Request
p74
(dp75
g4
I10036
sg5
I11428
sg6
S'23'
p76
sba(iRequest
Request
p77
(dp78
g4
I8241
sg5
I12439
sg6
S'24'
p79
sba(iRequest
Request
p80
(dp81
g4
I157
sg5
I5527
sg6
S'25'
p82
sba(iRequest
Request
p83
(dp84
g4
I10391
sg5
I13397
sg6
S'26'
p85
sba(iRequest
Request
p86
(dp87
g4
I40418
sg5
I42923
sg6
S'27'
p88
sba(iRequest
Request
p89
(dp90
g4
I3843
sg5
I10763
sg6
S'28'
p91
sba(iRequest
Request
p92
(dp93
g4
I20631
sg5
I27564
sg6
S'29'
p94
sba(iRequest
Request
p95
(dp96
g4
I29369
sg5
I35222
sg6
S'30'
p97
sba(iRequest
Request
p98
(dp99
g4
I7003
sg5
I7864
sg6
S'31'
p100
sba(iRequest
Request
p101
(dp102
g4
I8862
sg5
I11722
sg6
S'32'
p103
sba(iRequest
Request
p104
(dp105
g4
I31470
sg5
I37117
sg6
S'33'
p106
sba(iRequest
Request
p107
(dp108
g4
I18311
sg5
I23650
sg6
S'34'
p109
sba(iRequest
Request
p110
(dp111
g4
I23066
sg5
I24199
sg6
S'35'
p112
sba(iRequest
Request
p113
(dp114
g4
I8284
sg5
I12222
sg6
S'36'
p115
sba(iRequest
Request
p116
(dp117
g4
I11379
sg5
I17243
sg6
S'37'
p118
sba(iRequest
Request
p119
(dp120
g4
I17097
sg5
I19967
sg6
S'38'
p121
sba(iRequest
Request
p122
(dp123
g4
I15662
sg5
I16123
sg6
S'39'
p124
sba(iRequest
Request
p125
(dp126
g4
I31398
sg5
I34678
sg6
S'40'
p127
sba(iRequest
Request
p128
(dp129
g4
I22318
sg5
I30630
sg6
S'41'
p130
sba(iRequest
Request
p131
(dp132
g4
I23986
sg5
I29067
sg6
S'42'
p133
sba(iRequest
Request
p134
(dp135
g4
I10943
sg5
I19598
sg6
S'43'
p136
sba(iRequest
Request
p137
(dp138
g4
I23108
sg5
I27092
sg6
S'44'
p139
sba(iRequest
Request
p140
(dp141
g4
I34065
sg5
I36495
sg6
S'45'
p142
sba(iRequest
Request
p143
(dp144
g4
I15051
sg5
I15210
sg6
S'46'
p145
sba(iRequest
Request
p146
(dp147
g4
I31061
sg5
I37198
sg6
S'47'
p148
sba(iRequest
Request
p149
(dp150
g4
I24272
sg5
I33806
sg6
S'48'
p151
sba(iRequest
Request
p152
(dp153
g4
I23484
sg5
I27852
sg6
S'49'
p154
sba(iRequest
Request
p155
(dp156
g4
I2201
sg5
I12189
sg6
S'50'
p157
sba(iRequest
Request
p158
(dp159
g4
I24939
sg5
I25334
sg6
S'51'
p160
sba(iRequest
Request
p161
(dp162
g4
I33867
sg5
I37958
sg6
S'52'
p163
sba(iRequest
Request
p164
(dp165
g4
I24061
sg5
I26285
sg6
S'53'
p166
sba(iRequest
Request
p167
(dp168
g4
I837
sg5
I5257
sg6
S'54'
p169
sba(iRequest
Request
p170
(dp171
g4
I378
sg5
I8042
sg6
S'55'
p172
sba(iRequest
Request
p173
(dp174
g4
I10570
sg5
I18012
sg6
S'56'
p175
sba(iRequest
Request
p176
(dp177
g4
I14000
sg5
I23517
sg6
S'57'
p178
sba(iRequest
Request
p179
(dp180
g4
I16948
sg5
I22682
sg6
S'58'
p181
sba(iRequest
Request
p182
(dp183
g4
I23788
sg5
I28133
sg6
S'59'
p184
sba(iRequest
Request
p185
(dp186
g4
I2588
sg5
I9957
sg6
S'60'
p187
sba(iRequest
Request
p188
(dp189
g4
I37561
sg5
I41445
sg6
S'61'
p190
sba(iRequest
Request
p191
(dp192
g4
I6475
sg5
I15246
sg6
S'62'
p193
sba(iRequest
Request
p194
(dp195
g4
I4676
sg5
I9898
sg6
S'63'
p196
sba(iRequest
Request
p197
(dp198
g4
I35287
sg5
I37150
sg6
S'64'
p199
sba(iRequest
Request
p200
(dp201
g4
I28249
sg5
I35850
sg6
S'65'
p202
sba(iRequest
Request
p203
(dp204
g4
I29456
sg5
I32679
sg6
S'66'
p205
sba(iRequest
Request
p206
(dp207
g4
I13827
sg5
I15338
sg6
S'67'
p208
sba(iRequest
Request
p209
(dp210
g4
I26144
sg5
I27011
sg6
S'68'
p211
sba(iRequest
Request
p212
(dp213
g4
I25707
sg5
I31288
sg6
S'69'
p214
sba(iRequest
Request
p215
(dp216
g4
I18012
sg5
I25875
sg6
S'70'
p217
sba(iRequest
Request
p218
(dp219
g4
I11707
sg5
I16786
sg6
S'71'
p220
sba(iRequest
Request
p221
(dp222
g4
I33984
sg5
I37183
sg6
S'72'
p223
sba(iRequest
Request
p224
(dp225
g4
I3057
sg5
I5756
sg6
S'73'
p226
sba(iRequest
Request
p227
(dp228
g4
I7801
sg5
I9808
sg6
S'74'
p229
sba(iRequest
Request
p230
(dp231
g4
I16565
sg5
I19437
sg6
S'75'
p232
sba(iRequest
Request
p233
(dp234
g4
I34743
sg5
I42711
sg6
S'76'
p235
sba(iRequest
Request
p236
(dp237
g4
I13160
sg5
I14049
sg6
S'77'
p238
sba(iRequest
Request
p239
(dp240
g4
I31272
sg5
I40220
sg6
S'78'
p241
sba(iRequest
Request
p242
(dp243
g4
I29582
sg5
I31799
sg6
S'79'
p244
sba(iRequest
Request
p245
(dp246
g4
I31014
sg5
I36786
sg6
S'80'
p247
sba(iRequest
Request
p248
(dp249
g4
I25138
sg5
I31970
sg6
S'81'
p250
sba(iRequest
Request
p251
(dp252
g4
I27626
sg5
I32346
sg6
S'82'
p253
sba(iRequest
Request
p254
(dp255
g4
I2413
sg5
I3392
sg6
S'83'
p256
sba(iRequest
Request
p257
(dp258
g4
I30022
sg5
I34420
sg6
S'84'
p259
sba(iRequest
Request
p260
(dp261
g4
I16237
sg5
I20493
sg6
S'85'
p262
sba(iRequest
Request
p263
(dp264
g4
I17385
sg5
I18419
sg6
S'86'
p265
sba(iRequest
Request
p266
(dp267
g4
I2179
sg5
I4796
sg6
S'87'
p268
sba(iRequest
Request
p269
(dp270
g4
I31322
sg5
I39860
sg6
S'88'
p271
sba(iRequest
Request
p272
(dp273
g4
I23175
sg5
I30981
sg6
S'89'
p274
sba(iRequest
Request
p275
(dp276
g4
I3395
sg5
I4618
sg6
S'90'
p277
sba(iRequest
Request
p278
(dp279
g4
I16825
sg5
I26814
sg6
S'91'
p280
sba(iRequest
Request
p281
(dp282
g4
I4664
sg5
I6844
sg6
S'92'
p283
sba(iRequest
Request
p284
(dp285
g4
I7101
sg5
I8409
sg6
S'93'
p286
sba(iRequest
Request
p287
(dp288
g4
I24765
sg5
I34045
sg6
S'94'
p289
sba(iRequest
Request
p290
(dp291
g4
I10452
sg5
I20327
sg6
S'95'
p292
sba(iRequest
Request
p293
(dp294
g4
I33222
sg5
I34290
sg6
S'96'
p295
sba(iRequest
Request
p296
(dp297
g4
I29413
sg5
I30336
sg6
S'97'
p298
sba(iRequest
Request
p299
(dp300
g4
I7102
sg5
I13519
sg6
S'98'
p301
sba(iRequest
Request
p302
(dp303
g4
I34122
sg5
I41869
sg6
S'99'
p304
sba(iRequest
Request
p305
(dp306
g4
I27283
sg5
I31474
sg6
S'100'
p307
sba(iRequest
Request
p308
(dp309
g4
I17278
sg5
I24078
sg6
S'101'
p310
sba(iRequest
Request
p311
(dp312
g4
I7982
sg5
I15777
sg6
S'102'
p313
sba(iRequest
Request
p314
(dp315
g4
I14890
sg5
I20285
sg6
S'103'
p316
sba(iRequest
Request
p317
(dp318
g4
I16917
sg5
I17932
sg6
S'104'
p319
sba(iRequest
Request
p320
(dp321
g4
I17365
sg5
I17916
sg6
S'105'
p322
sba(iRequest
Request
p323
(dp324
g4
I1183
sg5
I2112
sg6
S'106'
p325
sba(iRequest
Request
p326
(dp327
g4
I28121
sg5
I29631
sg6
S'107'
p328
sba(iRequest
Request
p329
(dp330
g4
I33072
sg5
I41477
sg6
S'108'
p331
sba(iRequest
Request
p332
(dp333
g4
I30642
sg5
I40527
sg6
S'109'
p334
sba(iRequest
Request
p335
(dp336
g4
I21732
sg5
I30959
sg6
S'110'
p337
sba(iRequest
Request
p338
(dp339
g4
I18448
sg5
I20877
sg6
S'111'
p340
sba(iRequest
Request
p341
(dp342
g4
I38043
sg5
I41688
sg6
S'112'
p343
sba(iRequest
Request
p344
(dp345
g4
I16408
sg5
I20896
sg6
S'113'
p346
sba(iRequest
Request
p347
(dp348
g4
I11562
sg5
I20409
sg6
S'114'
p349
sba(iRequest
Request
p350
(dp351
g4
I34235
sg5
I42986
sg6
S'115'
p352
sba(iRequest
Request
p353
(dp354
g4
I26817
sg5
I29959
sg6
S'116'
p355
sba(iRequest
Request
p356
(dp357
g4
I4469
sg5
I12903
sg6
S'117'
p358
sba(iRequest
Request
p359
(dp360
g4
I2535
sg5
I10190
sg6
S'118'
p361
sba(iRequest
Request
p362
(dp363
g4
I32574
sg5
I39051
sg6
S'119'
p364
sba(iRequest
Request
p365
(dp366
g4
I29256
sg5
I34779
sg6
S'120'
p367
sba(iRequest
Request
p368
(dp369
g4
I39669
sg5
I43018
sg6
S'121'
p370
sba(iRequest
Request
p371
(dp372
g4
I25475
sg5
I29200
sg6
S'122'
p373
sba(iRequest
Request
p374
(dp375
g4
I22417
sg5
I24481
sg6
S'123'
p376
sba(iRequest
Request
p377
(dp378
g4
I31428
sg5
I39634
sg6
S'124'
p379
sba(iRequest
Request
p380
(dp381
g4
I20170
sg5
I28017
sg6
S'125'
p382
sba(iRequest
Request
p383
(dp384
g4
I9000
sg5
I17328
sg6
S'126'
p385
sba(iRequest
Request
p386
(dp387
g4
I34486
sg5
I37541
sg6
S'127'
p388
sba(iRequest
Request
p389
(dp390
g4
I21570
sg5
I22756
sg6
S'128'
p391
sba(iRequest
Request
p392
(dp393
g4
I2269
sg5
I3938
sg6
S'129'
p394
sba(iRequest
Request
p395
(dp396
g4
I19066
sg5
I25459
sg6
S'130'
p397
sba(iRequest
Request
p398
(dp399
g4
I11129
sg5
I14740
sg6
S'131'
p400
sba(iRequest
Request
p401
(dp402
g4
I14432
sg5
I18055
sg6
S'132'
p403
sba(iRequest
Request
p404
(dp405
g4
I1210
sg5
I6563
sg6
S'133'
p406
sba(iRequest
Request
p407
(dp408
g4
I24739
sg5
I26407
sg6
S'134'
p409
sba(iRequest
Request
p410
(dp411
g4
I15176
sg5
I22323
sg6
S'135'
p412
sba(iRequest
Request
p413
(dp414
g4
I39638
sg5
I40784
sg6
S'136'
p415
sba(iRequest
Request
p416
(dp417
g4
I6538
sg5
I12367
sg6
S'137'
p418
sba(iRequest
Request
p419
(dp420
g4
I12750
sg5
I13686
sg6
S'138'
p421
sba(iRequest
Request
p422
(dp423
g4
I12710
sg5
I15996
sg6
S'139'
p424
sba(iRequest
Request
p425
(dp426
g4
I23185
sg5
I26998
sg6
S'140'
p427
sba(iRequest
Request
p428
(dp429
g4
I778
sg5
I10561
sg6
S'141'
p430
sba(iRequest
Request
p431
(dp432
g4
I5334
sg5
I14570
sg6
S'142'
p433
sba(iRequest
Request
p434
(dp435
g4
I21744
sg5
I22884
sg6
S'143'
p436
sba(iRequest
Request
p437
(dp438
g4
I22714
sg5
I28155
sg6
S'144'
p439
sba(iRequest
Request
p440
(dp441
g4
I23923
sg5
I26188
sg6
S'145'
p442
sba(iRequest
Request
p443
(dp444
g4
I3572
sg5
I10677
sg6
S'146'
p445
sba(iRequest
Request
p446
(dp447
g4
I16916
sg5
I24502
sg6
S'147'
p448
sba(iRequest
Request
p449
(dp450
g4
I27540
sg5
I28202
sg6
S'148'
p451
sba(iRequest
Request
p452
(dp453
g4
I24146
sg5
I29965
sg6
S'149'
p454
sba(iRequest
Request
p455
(dp456
g4
I26615
sg5
I28901
sg6
S'150'
p457
sba(iRequest
Request
p458
(dp459
g4
I472
sg5
I9534
sg6
S'151'
p460
sba(iRequest
Request
p461
(dp462
g4
I6229
sg5
I11413
sg6
S'152'
p463
sba(iRequest
Request
p464
(dp465
g4
I12176
sg5
I13720
sg6
S'153'
p466
sba(iRequest
Request
p467
(dp468
g4
I35434
sg5
I41193
sg6
S'154'
p469
sba(iRequest
Request
p470
(dp471
g4
I19341
sg5
I28431
sg6
S'155'
p472
sba(iRequest
Request
p473
(dp474
g4
I11022
sg5
I20990
sg6
S'156'
p475
sba(iRequest
Request
p476
(dp477
g4
I11270
sg5
I12034
sg6
S'157'
p478
sba(iRequest
Request
p479
(dp480
g4
I21652
sg5
I26408
sg6
S'158'
p481
sba(iRequest
Request
p482
(dp483
g4
I34732
sg5
I35543
sg6
S'159'
p484
sba(iRequest
Request
p485
(dp486
g4
I27824
sg5
I34464
sg6
S'160'
p487
sba(iRequest
Request
p488
(dp489
g4
I38060
sg5
I38346
sg6
S'161'
p490
sba(iRequest
Request
p491
(dp492
g4
I10667
sg5
I19157
sg6
S'162'
p493
sba(iRequest
Request
p494
(dp495
g4
I30303
sg5
I36345
sg6
S'163'
p496
sba(iRequest
Request
p497
(dp498
g4
I40053
sg5
I41151
sg6
S'164'
p499
sba(iRequest
Request
p500
(dp501
g4
I9791
sg5
I18357
sg6
S'165'
p502
sba(iRequest
Request
p503
(dp504
g4
I14408
sg5
I17225
sg6
S'166'
p505
sba(iRequest
Request
p506
(dp507
g4
I12968
sg5
I19022
sg6
S'167'
p508
sba(iRequest
Request
p509
(dp510
g4
I19249
sg5
I22850
sg6
S'168'
p511
sba(iRequest
Request
p512
(dp513
g4
I14610
sg5
I18612
sg6
S'169'
p514
sba(iRequest
Request
p515
(dp516
g4
I23880
sg5
I24747
sg6
S'170'
p517
sba(iRequest
Request
p518
(dp519
g4
I17230
sg5
I24503
sg6
S'171'
p520
sba(iRequest
Request
p521
(dp522
g4
I15478
sg5
I16227
sg6
S'172'
p523
sba(iRequest
Request
p524
(dp525
g4
I8416
sg5
I9320
sg6
S'173'
p526
sba(iRequest
Request
p527
(dp528
g4
I21670
sg5
I22934
sg6
S'174'
p529
sba(iRequest
Request
p530
(dp531
g4
I27770
sg5
I30513
sg6
S'175'
p532
sba(iRequest
Request
p533
(dp534
g4
I14244
sg5
I20824
sg6
S'176'
p535
sba(iRequest
Request
p536
(dp537
g4
I27569
sg5
I35575
sg6
S'177'
p538
sba(iRequest
Request
p539
(dp540
g4
I2486
sg5
I7402
sg6
S'178'
p541
sba(iRequest
Request
p542
(dp543
g4
I9524
sg5
I10459
sg6
S'179'
p544
sba(iRequest
Request
p545
(dp546
g4
I6802
sg5
I16215
sg6
S'180'
p547
sba(iRequest
Request
p548
(dp549
g4
I15388
sg5
I19383
sg6
S'181'
p550
sba(iRequest
Request
p551
(dp552
g4
I35270
sg5
I35392
sg6
S'182'
p553
sba(iRequest
Request
p554
(dp555
g4
I32350
sg5
I41853
sg6
S'183'
p556
sba(iRequest
Request
p557
(dp558
g4
I11949
sg5
I18055
sg6
S'184'
p559
sba(iRequest
Request
p560
(dp561
g4
I3647
sg5
I4438
sg6
S'185'
p562
sba(iRequest
Request
p563
(dp564
g4
I37809
sg5
I39469
sg6
S'186'
p565
sba(iRequest
Request
p566
(dp567
g4
I22940
sg5
I31403
sg6
S'187'
p568
sba(iRequest
Request
p569
(dp570
g4
I23105
sg5
I24783
sg6
S'188'
p571
sba(iRequest
Request
p572
(dp573
g4
I36183
sg5
I41612
sg6
S'189'
p574
sba(iRequest
Request
p575
(dp576
g4
I30060
sg5
I37672
sg6
S'190'
p577
sba(iRequest
Request
p578
(dp579
g4
I15722
sg5
I22822
sg6
S'191'
p580
sba(iRequest
Request
p581
(dp582
g4
I15048
sg5
I23848
sg6
S'192'
p583
sba(iRequest
Request
p584
(dp585
g4
I12187
sg5
I18453
sg6
S'193'
p586
sba(iRequest
Request
p587
(dp588
g4
I10891
sg5
I20678
sg6
S'194'
p589
sba(iRequest
Request
p590
(dp591
g4
I32536
sg5
I38730
sg6
S'195'
p592
sba(iRequest
Request
p593
(dp594
g4
I16714
sg5
I16865
sg6
S'196'
p595
sba(iRequest
Request
p596
(dp597
g4
I5567
sg5
I10515
sg6
S'197'
p598
sba(iRequest
Request
p599
(dp600
g4
I670
sg5
I9464
sg6
S'198'
p601
sba(iRequest
Request
p602
(dp603
g4
I3898
sg5
I12875
sg6
S'199'
p604
sba(iRequest
Request
p605
(dp606
g4
I22498
sg5
I28439
sg6
S'200'
p607
sba(iRequest
Request
p608
(dp609
g4
I39769
sg5
I39963
sg6
S'201'
p610
sba(iRequest
Request
p611
(dp612
g4
I27697
sg5
I36202
sg6
S'202'
p613
sba(iRequest
Request
p614
(dp615
g4
I26745
sg5
I34075
sg6
S'203'
p616
sba(iRequest
Request
p617
(dp618
g4
I7941
sg5
I8737
sg6
S'204'
p619
sba(iRequest
Request
p620
(dp621
g4
I34898
sg5
I38946
sg6
S'205'
p622
sba(iRequest
Request
p623
(dp624
g4
I21911
sg5
I27379
sg6
S'206'
p625
sba(iRequest
Request
p626
(dp627
g4
I12975
sg5
I22185
sg6
S'207'
p628
sba(iRequest
Request
p629
(dp630
g4
I38290
sg5
I38595
sg6
S'208'
p631
sba(iRequest
Request
p632
(dp633
g4
I31873
sg5
I36623
sg6
S'209'
p634
sba(iRequest
Request
p635
(dp636
g4
I24871
sg5
I34065
sg6
S'210'
p637
sba(iRequest
Request
p638
(dp639
g4
I21240
sg5
I29280
sg6
S'211'
p640
sba(iRequest
Request
p641
(dp642
g4
I41364
sg5
I42396
sg6
S'212'
p643
sba(iRequest
Request
p644
(dp645
g4
I4596
sg5
I5417
sg6
S'213'
p646
sba(iRequest
Request
p647
(dp648
g4
I24365
sg5
I30971
sg6
S'214'
p649
sba(iRequest
Request
p650
(dp651
g4
I27965
sg5
I35287
sg6
S'215'
p652
sba(iRequest
Request
p653
(dp654
g4
I9480
sg5
I16303
sg6
S'216'
p655
sba(iRequest
Request
p656
(dp657
g4
I3193
sg5
I6098
sg6
S'217'
p658
sba(iRequest
Request
p659
(dp660
g4
I31310
sg5
I34541
sg6
S'218'
p661
sba(iRequest
Request
p662
(dp663
g4
I22915
sg5
I30562
sg6
S'219'
p664
sba(iRequest
Request
p665
(dp666
g4
I2038
sg5
I10680
sg6
S'220'
p667
sba(iRequest
Request
p668
(dp669
g4
I7968
sg5
I11866
sg6
S'221'
p670
sba(iRequest
Request
p671
(dp672
g4
I1149
sg5
I7552
sg6
S'222'
p673
sba(iRequest
Request
p674
(dp675
g4
I13541
sg5
I23290
sg6
S'223'
p676
sba(iRequest
Request
p677
(dp678
g4
I34800
sg5
I42377
sg6
S'224'
p679
sba(iRequest
Request
p680
(dp681
g4
I8635
sg5
I11048
sg6
S'225'
p682
sba(iRequest
Request
p683
(dp684
g4
I29138
sg5
I38957
sg6
S'226'
p685
sba(iRequest
Request
p686
(dp687
g4
I5140
sg5
I6759
sg6
S'227'
p688
sba(iRequest
Request
p689
(dp690
g4
I5387
sg5
I10513
sg6
S'228'
p691
sba(iRequest
Request
p692
(dp693
g4
I15523
sg5
I15941
sg6
S'229'
p694
sba(iRequest
Request
p695
(dp696
g4
I20467
sg5
I28076
sg6
S'230'
p697
sba(iRequest
Request
p698
(dp699
g4
I14804
sg5
I18358
sg6
S'231'
p700
sba(iRequest
Request
p701
(dp702
g4
I700
sg5
I8894
sg6
S'232'
p703
sba(iRequest
Request
p704
(dp705
g4
I12877
sg5
I19917
sg6
S'233'
p706
sba(iRequest
Request
p707
(dp708
g4
I21371
sg5
I26500
sg6
S'234'
p709
sba(iRequest
Request
p710
(dp711
g4
I28477
sg5
I35220
sg6
S'235'
p712
sba(iRequest
Request
p713
(dp714
g4
I3885
sg5
I10579
sg6
S'236'
p715
sba(iRequest
Request
p716
(dp717
g4
I16845
sg5
I24805
sg6
S'237'
p718
sba(iRequest
Request
p719
(dp720
g4
I14979
sg5
I23536
sg6
S'238'
p721
sba(iRequest
Request
p722
(dp723
g4
I8564
sg5
I15456
sg6
S'239'
p724
sba(iRequest
Request
p725
(dp726
g4
I22591
sg5
I31480
sg6
S'240'
p727
sba(iRequest
Request
p728
(dp729
g4
I1873
sg5
I4562
sg6
S'241'
p730
sba(iRequest
Request
p731
(dp732
g4
I20188
sg5
I28056
sg6
S'242'
p733
sba(iRequest
Request
p734
(dp735
g4
I6096
sg5
I9074
sg6
S'243'
p736
sba(iRequest
Request
p737
(dp738
g4
I19394
sg5
I20184
sg6
S'244'
p739
sba(iRequest
Request
p740
(dp741
g4
I22476
sg5
I28549
sg6
S'245'
p742
sba(iRequest
Request
p743
(dp744
g4
I37528
sg5
I38895
sg6
S'246'
p745
sba(iRequest
Request
p746
(dp747
g4
I1197
sg5
I3769
sg6
S'247'
p748
sba(iRequest
Request
p749
(dp750
g4
I12241
sg5
I20602
sg6
S'248'
p751
sba(iRequest
Request
p752
(dp753
g4
I12417
sg5
I21757
sg6
S'249'
p754
sba(iRequest
Request
p755
(dp756
g4
I23430
sg5
I32046
sg6
S'250'
p757
sba(iRequest
Request
p758
(dp759
g4
I31292
sg5
I40948
sg6
S'251'
p760
sba(iRequest
Request
p761
(dp762
g4
I39151
sg5
I42101
sg6
S'252'
p763
sba(iRequest
Request
p764
(dp765
g4
I29028
sg5
I36224
sg6
S'253'
p766
sba(iRequest
Request
p767
(dp768
g4
I91
sg5
I1240
sg6
S'254'
p769
sba(iRequest
Request
p770
(dp771
g4
I37309
sg5
I39109
sg6
S'255'
p772
sba(iRequest
Request
p773
(dp774
g4
I19946
sg5
I21007
sg6
S'256'
p775
sba(iRequest
Request
p776
(dp777
g4
I5239
sg5
I7004
sg6
S'257'
p778
sba(iRequest
Request
p779
(dp780
g4
I139
sg5
I9941
sg6
S'258'
p781
sba(iRequest
Request
p782
(dp783
g4
I8780
sg5
I13729
sg6
S'259'
p784
sba(iRequest
Request
p785
(dp786
g4
I32093
sg5
I40415
sg6
S'260'
p787
sba(iRequest
Request
p788
(dp789
g4
I7542
sg5
I15217
sg6
S'261'
p790
sba(iRequest
Request
p791
(dp792
g4
I727
sg5
I3119
sg6
S'262'
p793
sba(iRequest
Request
p794
(dp795
g4
I40104
sg5
I40560
sg6
S'263'
p796
sba(iRequest
Request
p797
(dp798
g4
I26360
sg5
I33811
sg6
S'264'
p799
sba(iRequest
Request
p800
(dp801
g4
I24692
sg5
I33775
sg6
S'265'
p802
sba(iRequest
Request
p803
(dp804
g4
I28432
sg5
I37410
sg6
S'266'
p805
sba(iRequest
Request
p806
(dp807
g4
I40542
sg5
I42415
sg6
S'267'
p808
sba(iRequest
Request
p809
(dp810
g4
I5662
sg5
I13289
sg6
S'268'
p811
sba(iRequest
Request
p812
(dp813
g4
I31611
sg5
I37627
sg6
S'269'
p814
sba(iRequest
Request
p815
(dp816
g4
I34103
sg5
I43166
sg6
S'270'
p817
sba(iRequest
Request
p818
(dp819
g4
I19942
sg5
I20748
sg6
S'271'
p820
sba(iRequest
Request
p821
(dp822
g4
I10362
sg5
I10472
sg6
S'272'
p823
sba(iRequest
Request
p824
(dp825
g4
I33130
sg5
I35814
sg6
S'273'
p826
sba(iRequest
Request
p827
(dp828
g4
I25502
sg5
I28017
sg6
S'274'
p829
sba(iRequest
Request
p830
(dp831
g4
I26078
sg5
I30289
sg6
S'275'
p832
sba(iRequest
Request
p833
(dp834
g4
I34035
sg5
I39465
sg6
S'276'
p835
sba(iRequest
Request
p836
(dp837
g4
I11101
sg5
I15209
sg6
S'277'
p838
sba(iRequest
Request
p839
(dp840
g4
I22149
sg5
I29106
sg6
S'278'
p841
sba(iRequest
Request
p842
(dp843
g4
I8833
sg5
I12890
sg6
S'279'
p844
sba(iRequest
Request
p845
(dp846
g4
I31362
sg5
I32543
sg6
S'280'
p847
sba(iRequest
Request
p848
(dp849
g4
I11057
sg5
I14805
sg6
S'281'
p850
sba(iRequest
Request
p851
(dp852
g4
I37512
sg5
I40429
sg6
S'282'
p853
sba(iRequest
Request
p854
(dp855
g4
I29081
sg5
I31064
sg6
S'283'
p856
sba(iRequest
Request
p857
(dp858
g4
I33942
sg5
I35341
sg6
S'284'
p859
sba(iRequest
Request
p860
(dp861
g4
I669
sg5
I10070
sg6
S'285'
p862
sba(iRequest
Request
p863
(dp864
g4
I24510
sg5
I32977
sg6
S'286'
p865
sba(iRequest
Request
p866
(dp867
g4
I21206
sg5
I26627
sg6
S'287'
p868
sba(iRequest
Request
p869
(dp870
g4
I19074
sg5
I27815
sg6
S'288'
p871
sba(iRequest
Request
p872
(dp873
g4
I2529
sg5
I5572
sg6
S'289'
p874
sba(iRequest
Request
p875
(dp876
g4
I37085
sg5
I43168
sg6
S'290'
p877
sba(iRequest
Request
p878
(dp879
g4
I31902
sg5
I41866
sg6
S'291'
p880
sba(iRequest
Request
p881
(dp882
g4
I14114
sg5
I23849
sg6
S'292'
p883
sba(iRequest
Request
p884
(dp885
g4
I13148
sg5
I22328
sg6
S'293'
p886
sba(iRequest
Request
p887
(dp888
g4
I16207
sg5
I24275
sg6
S'294'
p889
sba(iRequest
Request
p890
(dp891
g4
I9125
sg5
I16966
sg6
S'295'
p892
sba(iRequest
Request
p893
(dp894
g4
I15449
sg5
I15775
sg6
S'296'
p895
sba(iRequest
Request
p896
(dp897
g4
I30688
sg5
I34545
sg6
S'297'
p898
sba(iRequest
Request
p899
(dp900
g4
I21012
sg5
I29312
sg6
S'298'
p901
sba(iRequest
Request
p902
(dp903
g4
I12196
sg5
I20575
sg6
S'299'
p904
sba(iRequest
Request
p905
(dp906
g4
I16124
sg5
I23458
sg6
S'300'
p907
sba(iRequest
Request
p908
(dp909
g4
I12956
sg5
I22071
sg6
S'301'
p910
sba(iRequest
Request
p911
(dp912
g4
I28616
sg5
I32577
sg6
S'302'
p913
sba(iRequest
Request
p914
(dp915
g4
I6051
sg5
I9846
sg6
S'303'
p916
sba(iRequest
Request
p917
(dp918
g4
I40730
sg5
I41755
sg6
S'304'
p919
sba(iRequest
Request
p920
(dp921
g4
I11581
sg5
I14175
sg6
S'305'
p922
sba(iRequest
Request
p923
(dp924
g4
I32321
sg5
I34420
sg6
S'306'
p925
sba(iRequest
Request
p926
(dp927
g4
I22054
sg5
I28845
sg6
S'307'
p928
sba(iRequest
Request
p929
(dp930
g4
I36462
sg5
I41054
sg6
S'308'
p931
sba(iRequest
Request
p932
(dp933
g4
I11014
sg5
I15044
sg6
S'309'
p934
sba(iRequest
Request
p935
(dp936
g4
I3344
sg5
I5294
sg6
S'310'
p937
sba(iRequest
Request
p938
(dp939
g4
I27821
sg5
I28976
sg6
S'311'
p940
sba(iRequest
Request
p941
(dp942
g4
I26251
sg5
I30935
sg6
S'312'
p943
sba(iRequest
Request
p944
(dp945
g4
I33925
sg5
I42736
sg6
S'313'
p946
sba(iRequest
Request
p947
(dp948
g4
I1614
sg5
I3671
sg6
S'314'
p949
sba(iRequest
Request
p950
(dp951
g4
I23610
sg5
I26453
sg6
S'315'
p952
sba(iRequest
Request
p953
(dp954
g4
I883
sg5
I1602
sg6
S'316'
p955
sba(iRequest
Request
p956
(dp957
g4
I22295
sg5
I27408
sg6
S'317'
p958
sba(iRequest
Request
p959
(dp960
g4
I5115
sg5
I14931
sg6
S'318'
p961
sba(iRequest
Request
p962
(dp963
g4
I12736
sg5
I13256
sg6
S'319'
p964
sba(iRequest
Request
p965
(dp966
g4
I6750
sg5
I14707
sg6
S'320'
p967
sba(iRequest
Request
p968
(dp969
g4
I2850
sg5
I3334
sg6
S'321'
p970
sba(iRequest
Request
p971
(dp972
g4
I8514
sg5
I12340
sg6
S'322'
p973
sba(iRequest
Request
p974
(dp975
g4
I14224
sg5
I17731
sg6
S'323'
p976
sba(iRequest
Request
p977
(dp978
g4
I18229
sg5
I18619
sg6
S'324'
p979
sba(iRequest
Request
p980
(dp981
g4
I34019
sg5
I40129
sg6
S'325'
p982
sba(iRequest
Request
p983
(dp984
g4
I8875
sg5
I16732
sg6
S'326'
p985
sba(iRequest
Request
p986
(dp987
g4
I3448
sg5
I11872
sg6
S'327'
p988
sba(iRequest
Request
p989
(dp990
g4
I39294
sg5
I42339
sg6
S'328'
p991
sba(iRequest
Request
p992
(dp993
g4
I14016
sg5
I23612
sg6
S'329'
p994
sba(iRequest
Request
p995
(dp996
g4
I18718
sg5
I23955
sg6
S'330'
p997
sba(iRequest
Request
p998
(dp999
g4
I18359
sg5
I23182
sg6
S'331'
p1000
sba(iRequest
Request
p1001
(dp1002
g4
I17057
sg5
I24995
sg6
S'332'
p1003
sba(iRequest
Request
p1004
(dp1005
g4
I6882
sg5
I12802
sg6
S'333'
p1006
sba(iRequest
Request
p1007
(dp1008
g4
I33444
sg5
I34215
sg6
S'334'
p1009
sba(iRequest
Request
p1010
(dp1011
g4
I7727
sg5
I7865
sg6
S'335'
p1012
sba(iRequest
Request
p1013
(dp1014
g4
I10000
sg5
I16640
sg6
S'336'
p1015
sba(iRequest
Request
p1016
(dp1017
g4
I31586
sg5
I33324
sg6
S'337'
p1018
sba(iRequest
Request
p1019
(dp1020
g4
I26229
sg5
I35246
sg6
S'338'
p1021
sba(iRequest
Request
p1022
(dp1023
g4
I29431
sg5
I34419
sg6
S'339'
p1024
sba(iRequest
Request
p1025
(dp1026
g4
I33148
sg5
I33922
sg6
S'340'
p1027
sba(iRequest
Request
p1028
(dp1029
g4
I28382
sg5
I36105
sg6
S'341'
p1030
sba(iRequest
Request
p1031
(dp1032
g4
I4025
sg5
I13115
sg6
S'342'
p1033
sba(iRequest
Request
p1034
(dp1035
g4
I17998
sg5
I18776
sg6
S'343'
p1036
sba(iRequest
Request
p1037
(dp1038
g4
I37611
sg5
I38787
sg6
S'344'
p1039
sba(iRequest
Request
p1040
(dp1041
g4
I19032
sg5
I24620
sg6
S'345'
p1042
sba(iRequest
Request
p1043
(dp1044
g4
I28271
sg5
I32501
sg6
S'346'
p1045
sba(iRequest
Request
p1046
(dp1047
g4
I11211
sg5
I14262
sg6
S'347'
p1048
sba(iRequest
Request
p1049
(dp1050
g4
I19392
sg5
I22760
sg6
S'348'
p1051
sba(iRequest
Request
p1052
(dp1053
g4
I16798
sg5
I25232
sg6
S'349'
p1054
sba(iRequest
Request
p1055
(dp1056
g4
I20155
sg5
I29169
sg6
S'350'
p1057
sba(iRequest
Request
p1058
(dp1059
g4
I21683
sg5
I30691
sg6
S'351'
p1060
sba(iRequest
Request
p1061
(dp1062
g4
I6844
sg5
I14828
sg6
S'352'
p1063
sba(iRequest
Request
p1064
(dp1065
g4
I17613
sg5
I21475
sg6
S'353'
p1066
sba(iRequest
Request
p1067
(dp1068
g4
I12423
sg5
I19121
sg6
S'354'
p1069
sba(iRequest
Request
p1070
(dp1071
g4
I13399
sg5
I19772
sg6
S'355'
p1072
sba(iRequest
Request
p1073
(dp1074
g4
I21583
sg5
I29859
sg6
S'356'
p1075
sba(iRequest
Request
p1076
(dp1077
g4
I23827
sg5
I32607
sg6
S'357'
p1078
sba(iRequest
Request
p1079
(dp1080
g4
I8309
sg5
I11253
sg6
S'358'
p1081
sba(iRequest
Request
p1082
(dp1083
g4
I647
sg5
I8709
sg6
S'359'
p1084
sba(iRequest
Request
p1085
(dp1086
g4
I11526
sg5
I17234
sg6
S'360'
p1087
sba(iRequest
Request
p1088
(dp1089
g4
I9724
sg5
I13237
sg6
S'361'
p1090
sba(iRequest
Request
p1091
(dp1092
g4
I21613
sg5
I30110
sg6
S'362'
p1093
sba(iRequest
Request
p1094
(dp1095
g4
I18435
sg5
I20699
sg6
S'363'
p1096
sba(iRequest
Request
p1097
(dp1098
g4
I28722
sg5
I29990
sg6
S'364'
p1099
sba(iRequest
Request
p1100
(dp1101
g4
I36487
sg5
I37700
sg6
S'365'
p1102
sba(iRequest
Request
p1103
(dp1104
g4
I4632
sg5
I12912
sg6
S'366'
p1105
sba(iRequest
Request
p1106
(dp1107
g4
I1268
sg5
I3758
sg6
S'367'
p1108
sba(iRequest
Request
p1109
(dp1110
g4
I9314
sg5
I9469
sg6
S'368'
p1111
sba(iRequest
Request
p1112
(dp1113
g4
I5111
sg5
I13201
sg6
S'369'
p1114
sba(iRequest
Request
p1115
(dp1116
g4
I30606
sg5
I36456
sg6
S'370'
p1117
sba(iRequest
Request
p1118
(dp1119
g4
I32433
sg5
I38174
sg6
S'371'
p1120
sba(iRequest
Request
p1121
(dp1122
g4
I13756
sg5
I22844
sg6
S'372'
p1123
sba(iRequest
Request
p1124
(dp1125
g4
I24097
sg5
I27833
sg6
S'373'
p1126
sba(iRequest
Request
p1127
(dp1128
g4
I2456
sg5
I10201
sg6
S'374'
p1129
sba(iRequest
Request
p1130
(dp1131
g4
I12158
sg5
I18834
sg6
S'375'
p1132
sba(iRequest
Request
p1133
(dp1134
g4
I18374
sg5
I28343
sg6
S'376'
p1135
sba(iRequest
Request
p1136
(dp1137
g4
I27255
sg5
I35550
sg6
S'377'
p1138
sba(iRequest
Request
p1139
(dp1140
g4
I34948
sg5
I38787
sg6
S'378'
p1141
sba(iRequest
Request
p1142
(dp1143
g4
I23744
sg5
I26503
sg6
S'379'
p1144
sba(iRequest
Request
p1145
(dp1146
g4
I25404
sg5
I29694
sg6
S'380'
p1147
sba(iRequest
Request
p1148
(dp1149
g4
I19756
sg5
I25754
sg6
S'381'
p1150
sba(iRequest
Request
p1151
(dp1152
g4
I24998
sg5
I31044
sg6
S'382'
p1153
sba(iRequest
Request
p1154
(dp1155
g4
I11093
sg5
I20225
sg6
S'383'
p1156
sba(iRequest
Request
p1157
(dp1158
g4
I30631
sg5
I32131
sg6
S'384'
p1159
sba(iRequest
Request
p1160
(dp1161
g4
I22240
sg5
I25734
sg6
S'385'
p1162
sba(iRequest
Request
p1163
(dp1164
g4
I21405
sg5
I24896
sg6
S'386'
p1165
sba(iRequest
Request
p1166
(dp1167
g4
I31673
sg5
I37133
sg6
S'387'
p1168
sba(iRequest
Request
p1169
(dp1170
g4
I36570
sg5
I38658
sg6
S'388'
p1171
sba(iRequest
Request
p1172
(dp1173
g4
I11619
sg5
I17626
sg6
S'389'
p1174
sba(iRequest
Request
p1175
(dp1176
g4
I16377
sg5
I19472
sg6
S'390'
p1177
sba(iRequest
Request
p1178
(dp1179
g4
I31232
sg5
I33098
sg6
S'391'
p1180
sba(iRequest
Request
p1181
(dp1182
g4
I5612
sg5
I9815
sg6
S'392'
p1183
sba(iRequest
Request
p1184
(dp1185
g4
I25790
sg5
I29726
sg6
S'393'
p1186
sba(iRequest
Request
p1187
(dp1188
g4
I12566
sg5
I20228
sg6
S'394'
p1189
sba(iRequest
Request
p1190
(dp1191
g4
I4991
sg5
I12940
sg6
S'395'
p1192
sba(iRequest
Request
p1193
(dp1194
g4
I10055
sg5
I14246
sg6
S'396'
p1195
sba(iRequest
Request
p1196
(dp1197
g4
I34637
sg5
I40706
sg6
S'397'
p1198
sba(iRequest
Request
p1199
(dp1200
g4
I8907
sg5
I14911
sg6
S'398'
p1201
sba(iRequest
Request
p1202
(dp1203
g4
I7425
sg5
I15182
sg6
S'399'
p1204
sba(iRequest
Request
p1205
(dp1206
g4
I13441
sg5
I20165
sg6
S'400'
p1207
sba(iRequest
Request
p1208
(dp1209
g4
I8163
sg5
I14635
sg6
S'401'
p1210
sba(iRequest
Request
p1211
(dp1212
g4
I17508
sg5
I23529
sg6
S'402'
p1213
sba(iRequest
Request
p1214
(dp1215
g4
I34331
sg5
I35199
sg6
S'403'
p1216
sba(iRequest
Request
p1217
(dp1218
g4
I27358
sg5
I29663
sg6
S'404'
p1219
sba(iRequest
Request
p1220
(dp1221
g4
I22866
sg5
I31464
sg6
S'405'
p1222
sba(iRequest
Request
p1223
(dp1224
g4
I23595
sg5
I30168
sg6
S'406'
p1225
sba(iRequest
Request
p1226
(dp1227
g4
I26088
sg5
I28864
sg6
S'407'
p1228
sba(iRequest
Request
p1229
(dp1230
g4
I8098
sg5
I11963
sg6
S'408'
p1231
sba(iRequest
Request
p1232
(dp1233
g4
I8650
sg5
I9305
sg6
S'409'
p1234
sba(iRequest
Request
p1235
(dp1236
g4
I31089
sg5
I39751
sg6
S'410'
p1237
sba(iRequest
Request
p1238
(dp1239
g4
I31077
sg5
I33068
sg6
S'411'
p1240
sba(iRequest
Request
p1241
(dp1242
g4
I11888
sg5
I21739
sg6
S'412'
p1243
sba(iRequest
Request
p1244
(dp1245
g4
I20247
sg5
I28514
sg6
S'413'
p1246
sba(iRequest
Request
p1247
(dp1248
g4
I35010
sg5
I38250
sg6
S'414'
p1249
sba(iRequest
Request
p1250
(dp1251
g4
I10858
sg5
I19249
sg6
S'415'
p1252
sba(iRequest
Request
p1253
(dp1254
g4
I16581
sg5
I24782
sg6
S'416'
p1255
sba(iRequest
Request
p1256
(dp1257
g4
I32801
sg5
I36331
sg6
S'417'
p1258
sba(iRequest
Request
p1259
(dp1260
g4
I22436
sg5
I29702
sg6
S'418'
p1261
sba(iRequest
Request
p1262
(dp1263
g4
I37271
sg5
I42624
sg6
S'419'
p1264
sba(iRequest
Request
p1265
(dp1266
g4
I30275
sg5
I35090
sg6
S'420'
p1267
sba(iRequest
Request
p1268
(dp1269
g4
I612
sg5
I7669
sg6
S'421'
p1270
sba(iRequest
Request
p1271
(dp1272
g4
I12771
sg5
I17186
sg6
S'422'
p1273
sba(iRequest
Request
p1274
(dp1275
g4
I16396
sg5
I23415
sg6
S'423'
p1276
sba(iRequest
Request
p1277
(dp1278
g4
I8675
sg5
I18621
sg6
S'424'
p1279
sba(iRequest
Request
p1280
(dp1281
g4
I24935
sg5
I33010
sg6
S'425'
p1282
sba(iRequest
Request
p1283
(dp1284
g4
I20934
sg5
I29700
sg6
S'426'
p1285
sba(iRequest
Request
p1286
(dp1287
g4
I21977
sg5
I30678
sg6
S'427'
p1288
sba(iRequest
Request
p1289
(dp1290
g4
I15600
sg5
I16314
sg6
S'428'
p1291
sba(iRequest
Request
p1292
(dp1293
g4
I35381
sg5
I38100
sg6
S'429'
p1294
sba(iRequest
Request
p1295
(dp1296
g4
I6278
sg5
I6521
sg6
S'430'
p1297
sba(iRequest
Request
p1298
(dp1299
g4
I30794
sg5
I33443
sg6
S'431'
p1300
sba(iRequest
Request
p1301
(dp1302
g4
I32533
sg5
I41882
sg6
S'432'
p1303
sba(iRequest
Request
p1304
(dp1305
g4
I39114
sg5
I42912
sg6
S'433'
p1306
sba(iRequest
Request
p1307
(dp1308
g4
I26042
sg5
I29122
sg6
S'434'
p1309
sba(iRequest
Request
p1310
(dp1311
g4
I33614
sg5
I39748
sg6
S'435'
p1312
sba(iRequest
Request
p1313
(dp1314
g4
I9793
sg5
I12852
sg6
S'436'
p1315
sba(iRequest
Request
p1316
(dp1317
g4
I29921
sg5
I36980
sg6
S'437'
p1318
sba(iRequest
Request
p1319
(dp1320
g4
I10666
sg5
I17842
sg6
S'438'
p1321
sba(iRequest
Request
p1322
(dp1323
g4
I21086
sg5
I23207
sg6
S'439'
p1324
sba(iRequest
Request
p1325
(dp1326
g4
I29925
sg5
I33972
sg6
S'440'
p1327
sba(iRequest
Request
p1328
(dp1329
g4
I8313
sg5
I9415
sg6
S'441'
p1330
sba(iRequest
Request
p1331
(dp1332
g4
I21453
sg5
I28173
sg6
S'442'
p1333
sba(iRequest
Request
p1334
(dp1335
g4
I9148
sg5
I10151
sg6
S'443'
p1336
sba(iRequest
Request
p1337
(dp1338
g4
I24373
sg5
I34023
sg6
S'444'
p1339
sba(iRequest
Request
p1340
(dp1341
g4
I26392
sg5
I33383
sg6
S'445'
p1342
sba(iRequest
Request
p1343
(dp1344
g4
I29034
sg5
I34339
sg6
S'446'
p1345
sba(iRequest
Request
p1346
(dp1347
g4
I13668
sg5
I19407
sg6
S'447'
p1348
sba(iRequest
Request
p1349
(dp1350
g4
I33499
sg5
I34769
sg6
S'448'
p1351
sba(iRequest
Request
p1352
(dp1353
g4
I24978
sg5
I27179
sg6
S'449'
p1354
sba(iRequest
Request
p1355
(dp1356
g4
I11929
sg5
I21876
sg6
S'450'
p1357
sba(iRequest
Request
p1358
(dp1359
g4
I18774
sg5
I24727
sg6
S'451'
p1360
sba(iRequest
Request
p1361
(dp1362
g4
I198
sg5
I6263
sg6
S'452'
p1363
sba(iRequest
Request
p1364
(dp1365
g4
I34791
sg5
I39535
sg6
S'453'
p1366
sba(iRequest
Request
p1367
(dp1368
g4
I37920
sg5
I39645
sg6
S'454'
p1369
sba(iRequest
Request
p1370
(dp1371
g4
I19841
sg5
I24802
sg6
S'455'
p1372
sba(iRequest
Request
p1373
(dp1374
g4
I11111
sg5
I17873
sg6
S'456'
p1375
sba(iRequest
Request
p1376
(dp1377
g4
I26067
sg5
I32266
sg6
S'457'
p1378
sba(iRequest
Request
p1379
(dp1380
g4
I28417
sg5
I37744
sg6
S'458'
p1381
sba(iRequest
Request
p1382
(dp1383
g4
I6536
sg5
I11712
sg6
S'459'
p1384
sba(iRequest
Request
p1385
(dp1386
g4
I22161
sg5
I23453
sg6
S'460'
p1387
sba(iRequest
Request
p1388
(dp1389
g4
I20261
sg5
I26993
sg6
S'461'
p1390
sba(iRequest
Request
p1391
(dp1392
g4
I30172
sg5
I33566
sg6
S'462'
p1393
sba(iRequest
Request
p1394
(dp1395
g4
I17405
sg5
I26748
sg6
S'463'
p1396
sba(iRequest
Request
p1397
(dp1398
g4
I474
sg5
I4568
sg6
S'464'
p1399
sba(iRequest
Request
p1400
(dp1401
g4
I4913
sg5
I9437
sg6
S'465'
p1402
sba(iRequest
Request
p1403
(dp1404
g4
I40029
sg5
I40676
sg6
S'466'
p1405
sba(iRequest
Request
p1406
(dp1407
g4
I36750
sg5
I41969
sg6
S'467'
p1408
sba(iRequest
Request
p1409
(dp1410
g4
I15837
sg5
I25005
sg6
S'468'
p1411
sba(iRequest
Request
p1412
(dp1413
g4
I13774
sg5
I16128
sg6
S'469'
p1414
sba(iRequest
Request
p1415
(dp1416
g4
I9547
sg5
I14088
sg6
S'470'
p1417
sba(iRequest
Request
p1418
(dp1419
g4
I29394
sg5
I35446
sg6
S'471'
p1420
sba(iRequest
Request
p1421
(dp1422
g4
I28207
sg5
I38083
sg6
S'472'
p1423
sba(iRequest
Request
p1424
(dp1425
g4
I3332
sg5
I4899
sg6
S'473'
p1426
sba(iRequest
Request
p1427
(dp1428
g4
I24179
sg5
I30910
sg6
S'474'
p1429
sba(iRequest
Request
p1430
(dp1431
g4
I11354
sg5
I15990
sg6
S'475'
p1432
sba(iRequest
Request
p1433
(dp1434
g4
I33751
sg5
I35268
sg6
S'476'
p1435
sba(iRequest
Request
p1436
(dp1437
g4
I12541
sg5
I15436
sg6
S'477'
p1438
sba(iRequest
Request
p1439
(dp1440
g4
I24656
sg5
I28236
sg6
S'478'
p1441
sba(iRequest
Request
p1442
(dp1443
g4
I8091
sg5
I12294
sg6
S'479'
p1444
sba(iRequest
Request
p1445
(dp1446
g4
I5922
sg5
I14048
sg6
S'480'
p1447
sba(iRequest
Request
p1448
(dp1449
g4
I4938
sg5
I11520
sg6
S'481'
p1450
sba(iRequest
Request
p1451
(dp1452
g4
I12454
sg5
I18465
sg6
S'482'
p1453
sba(iRequest
Request
p1454
(dp1455
g4
I5016
sg5
I10475
sg6
S'483'
p1456
sba(iRequest
Request
p1457
(dp1458
g4
I25862
sg5
I34705
sg6
S'484'
p1459
sba(iRequest
Request
p1460
(dp1461
g4
I19909
sg5
I26354
sg6
S'485'
p1462
sba(iRequest
Request
p1463
(dp1464
g4
I3729
sg5
I3838
sg6
S'486'
p1465
sba(iRequest
Request
p1466
(dp1467
g4
I14740
sg5
I23719
sg6
S'487'
p1468
sba(iRequest
Request
p1469
(dp1470
g4
I31065
sg5
I38611
sg6
S'488'
p1471
sba(iRequest
Request
p1472
(dp1473
g4
I7687
sg5
I11746
sg6
S'489'
p1474
sba(iRequest
Request
p1475
(dp1476
g4
I29775
sg5
I36690
sg6
S'490'
p1477
sba(iRequest
Request
p1478
(dp1479
g4
I26357
sg5
I27633
sg6
S'491'
p1480
sba(iRequest
Request
p1481
(dp1482
g4
I21750
sg5
I28793
sg6
S'492'
p1483
sba(iRequest
Request
p1484
(dp1485
g4
I2593
sg5
I12187
sg6
S'493'
p1486
sba(iRequest
Request
p1487
(dp1488
g4
I30147
sg5
I30608
sg6
S'494'
p1489
sba(iRequest
Request
p1490
(dp1491
g4
I5184
sg5
I13256
sg6
S'495'
p1492
sba(iRequest
Request
p1493
(dp1494
g4
I26193
sg5
I35868
sg6
S'496'
p1495
sba(iRequest
Request
p1496
(dp1497
g4
I5029
sg5
I11904
sg6
S'497'
p1498
sba(iRequest
Request
p1499
(dp1500
g4
I33052
sg5
I38417
sg6
S'498'
p1501
sba(iRequest
Request
p1502
(dp1503
g4
I26754
sg5
I31761
sg6
S'499'
p1504
sba(iRequest
Request
p1505
(dp1506
g4
I4290
sg5
I4781
sg6
S'500'
p1507
sba(iRequest
Request
p1508
(dp1509
g4
I17663
sg5
I25848
sg6
S'501'
p1510
sba(iRequest
Request
p1511
(dp1512
g4
I5438
sg5
I13991
sg6
S'502'
p1513
sba(iRequest
Request
p1514
(dp1515
g4
I26655
sg5
I31333
sg6
S'503'
p1516
sba(iRequest
Request
p1517
(dp1518
g4
I7302
sg5
I17229
sg6
S'504'
p1519
sba(iRequest
Request
p1520
(dp1521
g4
I26686
sg5
I32269
sg6
S'505'
p1522
sba(iRequest
Request
p1523
(dp1524
g4
I10290
sg5
I17254
sg6
S'506'
p1525
sba(iRequest
Request
p1526
(dp1527
g4
I17271
sg5
I19063
sg6
S'507'
p1528
sba(iRequest
Request
p1529
(dp1530
g4
I14006
sg5
I19021
sg6
S'508'
p1531
sba(iRequest
Request
p1532
(dp1533
g4
I21743
sg5
I30639
sg6
S'509'
p1534
sba(iRequest
Request
p1535
(dp1536
g4
I30658
sg5
I31891
sg6
S'510'
p1537
sba(iRequest
Request
p1538
(dp1539
g4
I33157
sg5
I35407
sg6
S'511'
p1540
sba(iRequest
Request
p1541
(dp1542
g4
I30288
sg5
I38324
sg6
S'512'
p1543
sba(iRequest
Request
p1544
(dp1545
g4
I5993
sg5
I6690
sg6
S'513'
p1546
sba(iRequest
Request
p1547
(dp1548
g4
I33123
sg5
I39381
sg6
S'514'
p1549
sba(iRequest
Request
p1550
(dp1551
g4
I16080
sg5
I25141
sg6
S'515'
p1552
sba(iRequest
Request
p1553
(dp1554
g4
I26551
sg5
I32153
sg6
S'516'
p1555
sba(iRequest
Request
p1556
(dp1557
g4
I31116
sg5
I38718
sg6
S'517'
p1558
sba(iRequest
Request
p1559
(dp1560
g4
I20871
sg5
I26314
sg6
S'518'
p1561
sba(iRequest
Request
p1562
(dp1563
g4
I20623
sg5
I24846
sg6
S'519'
p1564
sba(iRequest
Request
p1565
(dp1566
g4
I36163
sg5
I42848
sg6
S'520'
p1567
sba(iRequest
Request
p1568
(dp1569
g4
I31453
sg5
I31848
sg6
S'521'
p1570
sba(iRequest
Request
p1571
(dp1572
g4
I30972
sg5
I32380
sg6
S'522'
p1573
sba(iRequest
Request
p1574
(dp1575
g4
I12368
sg5
I14652
sg6
S'523'
p1576
sba(iRequest
Request
p1577
(dp1578
g4
I4699
sg5
I7995
sg6
S'524'
p1579
sba(iRequest
Request
p1580
(dp1581
g4
I10511
sg5
I17724
sg6
S'525'
p1582
sba(iRequest
Request
p1583
(dp1584
g4
I27534
sg5
I36727
sg6
S'526'
p1585
sba(iRequest
Request
p1586
(dp1587
g4
I21678
sg5
I30776
sg6
S'527'
p1588
sba(iRequest
Request
p1589
(dp1590
g4
I42449
sg5
I42701
sg6
S'528'
p1591
sba(iRequest
Request
p1592
(dp1593
g4
I29717
sg5
I32913
sg6
S'529'
p1594
sba(iRequest
Request
p1595
(dp1596
g4
I2618
sg5
I4812
sg6
S'530'
p1597
sba(iRequest
Request
p1598
(dp1599
g4
I9749
sg5
I16353
sg6
S'531'
p1600
sba(iRequest
Request
p1601
(dp1602
g4
I7858
sg5
I13161
sg6
S'532'
p1603
sba(iRequest
Request
p1604
(dp1605
g4
I9502
sg5
I10985
sg6
S'533'
p1606
sba(iRequest
Request
p1607
(dp1608
g4
I3652
sg5
I9797
sg6
S'534'
p1609
sba(iRequest
Request
p1610
(dp1611
g4
I27256
sg5
I33901
sg6
S'535'
p1612
sba(iRequest
Request
p1613
(dp1614
g4
I34134
sg5
I42491
sg6
S'536'
p1615
sba(iRequest
Request
p1616
(dp1617
g4
I11109
sg5
I12791
sg6
S'537'
p1618
sba(iRequest
Request
p1619
(dp1620
g4
I33818
sg5
I36867
sg6
S'538'
p1621
sba(iRequest
Request
p1622
(dp1623
g4
I15001
sg5
I24562
sg6
S'539'
p1624
sba(iRequest
Request
p1625
(dp1626
g4
I35232
sg5
I39095
sg6
S'540'
p1627
sba(iRequest
Request
p1628
(dp1629
g4
I34285
sg5
I37316
sg6
S'541'
p1630
sba(iRequest
Request
p1631
(dp1632
g4
I25861
sg5
I32478
sg6
S'542'
p1633
sba(iRequest
Request
p1634
(dp1635
g4
I32849
sg5
I42379
sg6
S'543'
p1636
sba(iRequest
Request
p1637
(dp1638
g4
I26905
sg5
I27343
sg6
S'544'
p1639
sba(iRequest
Request
p1640
(dp1641
g4
I26828
sg5
I32103
sg6
S'545'
p1642
sba(iRequest
Request
p1643
(dp1644
g4
I12827
sg5
I12972
sg6
S'546'
p1645
sba(iRequest
Request
p1646
(dp1647
g4
I39337
sg5
I41247
sg6
S'547'
p1648
sba(iRequest
Request
p1649
(dp1650
g4
I4994
sg5
I13041
sg6
S'548'
p1651
sba(iRequest
Request
p1652
(dp1653
g4
I24467
sg5
I32087
sg6
S'549'
p1654
sba(iRequest
Request
p1655
(dp1656
g4
I21066
sg5
I27128
sg6
S'550'
p1657
sba(iRequest
Request
p1658
(dp1659
g4
I33885
sg5
I41597
sg6
S'551'
p1660
sba(iRequest
Request
p1661
(dp1662
g4
I9435
sg5
I12654
sg6
S'552'
p1663
sba(iRequest
Request
p1664
(dp1665
g4
I29774
sg5
I39404
sg6
S'553'
p1666
sba(iRequest
Request
p1667
(dp1668
g4
I33842
sg5
I35020
sg6
S'554'
p1669
sba(iRequest
Request
p1670
(dp1671
g4
I19652
sg5
I27829
sg6
S'555'
p1672
sba(iRequest
Request
p1673
(dp1674
g4
I33167
sg5
I39765
sg6
S'556'
p1675
sba(iRequest
Request
p1676
(dp1677
g4
I28163
sg5
I36204
sg6
S'557'
p1678
sba(iRequest
Request
p1679
(dp1680
g4
I29165
sg5
I38332
sg6
S'558'
p1681
sba(iRequest
Request
p1682
(dp1683
g4
I23491
sg5
I29321
sg6
S'559'
p1684
sba(iRequest
Request
p1685
(dp1686
g4
I15411
sg5
I16140
sg6
S'560'
p1687
sba(iRequest
Request
p1688
(dp1689
g4
I22313
sg5
I29691
sg6
S'561'
p1690
sba(iRequest
Request
p1691
(dp1692
g4
I10618
sg5
I12492
sg6
S'562'
p1693
sba(iRequest
Request
p1694
(dp1695
g4
I10053
sg5
I12850
sg6
S'563'
p1696
sba(iRequest
Request
p1697
(dp1698
g4
I14152
sg5
I17231
sg6
S'564'
p1699
sba(iRequest
Request
p1700
(dp1701
g4
I33827
sg5
I40729
sg6
S'565'
p1702
sba(iRequest
Request
p1703
(dp1704
g4
I16862
sg5
I24357
sg6
S'566'
p1705
sba(iRequest
Request
p1706
(dp1707
g4
I32621
sg5
I41196
sg6
S'567'
p1708
sba(iRequest
Request
p1709
(dp1710
g4
I18443
sg5
I18943
sg6
S'568'
p1711
sba(iRequest
Request
p1712
(dp1713
g4
I19231
sg5
I29023
sg6
S'569'
p1714
sba(iRequest
Request
p1715
(dp1716
g4
I17105
sg5
I26218
sg6
S'570'
p1717
sba(iRequest
Request
p1718
(dp1719
g4
I17996
sg5
I22137
sg6
S'571'
p1720
sba(iRequest
Request
p1721
(dp1722
g4
I32717
sg5
I36168
sg6
S'572'
p1723
sba(iRequest
Request
p1724
(dp1725
g4
I30501
sg5
I39042
sg6
S'573'
p1726
sba(iRequest
Request
p1727
(dp1728
g4
I28715
sg5
I33827
sg6
S'574'
p1729
sba(iRequest
Request
p1730
(dp1731
g4
I22077
sg5
I24988
sg6
S'575'
p1732
sba(iRequest
Request
p1733
(dp1734
g4
I31755
sg5
I38700
sg6
S'576'
p1735
sba(iRequest
Request
p1736
(dp1737
g4
I17101
sg5
I22495
sg6
S'577'
p1738
sba(iRequest
Request
p1739
(dp1740
g4
I18935
sg5
I19394
sg6
S'578'
p1741
sba(iRequest
Request
p1742
(dp1743
g4
I17829
sg5
I23862
sg6
S'579'
p1744
sba(iRequest
Request
p1745
(dp1746
g4
I8139
sg5
I14335
sg6
S'580'
p1747
sba(iRequest
Request
p1748
(dp1749
g4
I35202
sg5
I42614
sg6
S'581'
p1750
sba(iRequest
Request
p1751
(dp1752
g4
I26146
sg5
I31028
sg6
S'582'
p1753
sba(iRequest
Request
p1754
(dp1755
g4
I28588
sg5
I34765
sg6
S'583'
p1756
sba(iRequest
Request
p1757
(dp1758
g4
I29567
sg5
I30449
sg6
S'584'
p1759
sba(iRequest
Request
p1760
(dp1761
g4
I21194
sg5
I29067
sg6
S'585'
p1762
sba(iRequest
Request
p1763
(dp1764
g4
I11557
sg5
I18814
sg6
S'586'
p1765
sba(iRequest
Request
p1766
(dp1767
g4
I23131
sg5
I25211
sg6
S'587'
p1768
sba(iRequest
Request
p1769
(dp1770
g4
I21374
sg5
I29083
sg6
S'588'
p1771
sba(iRequest
Request
p1772
(dp1773
g4
I27396
sg5
I36842
sg6
S'589'
p1774
sba(iRequest
Request
p1775
(dp1776
g4
I12145
sg5
I21146
sg6
S'590'
p1777
sba(iRequest
Request
p1778
(dp1779
g4
I743
sg5
I10288
sg6
S'591'
p1780
sba(iRequest
Request
p1781
(dp1782
g4
I29225
sg5
I34548
sg6
S'592'
p1783
sba(iRequest
Request
p1784
(dp1785
g4
I17009
sg5
I21935
sg6
S'593'
p1786
sba(iRequest
Request
p1787
(dp1788
g4
I6660
sg5
I15193
sg6
S'594'
p1789
sba(iRequest
Request
p1790
(dp1791
g4
I309
sg5
I3004
sg6
S'595'
p1792
sba(iRequest
Request
p1793
(dp1794
g4
I36802
sg5
I39044
sg6
S'596'
p1795
sba(iRequest
Request
p1796
(dp1797
g4
I38794
sg5
I39347
sg6
S'597'
p1798
sba(iRequest
Request
p1799
(dp1800
g4
I17265
sg5
I21366
sg6
S'598'
p1801
sba(iRequest
Request
p1802
(dp1803
g4
I23986
sg5
I26316
sg6
S'599'
p1804
sba(iRequest
Request
p1805
(dp1806
g4
I12899
sg5
I15324
sg6
S'600'
p1807
sba(iRequest
Request
p1808
(dp1809
g4
I18368
sg5
I21730
sg6
S'601'
p1810
sba(iRequest
Request
p1811
(dp1812
g4
I9919
sg5
I16341
sg6
S'602'
p1813
sba(iRequest
Request
p1814
(dp1815
g4
I2250
sg5
I10017
sg6
S'603'
p1816
sba(iRequest
Request
p1817
(dp1818
g4
I18864
sg5
I23491
sg6
S'604'
p1819
sba(iRequest
Request
p1820
(dp1821
g4
I14730
sg5
I18406
sg6
S'605'
p1822
sba(iRequest
Request
p1823
(dp1824
g4
I15229
sg5
I21306
sg6
S'606'
p1825
sba(iRequest
Request
p1826
(dp1827
g4
I8755
sg5
I12246
sg6
S'607'
p1828
sba(iRequest
Request
p1829
(dp1830
g4
I28156
sg5
I35372
sg6
S'608'
p1831
sba(iRequest
Request
p1832
(dp1833
g4
I8611
sg5
I12839
sg6
S'609'
p1834
sba(iRequest
Request
p1835
(dp1836
g4
I28831
sg5
I32833
sg6
S'610'
p1837
sba(iRequest
Request
p1838
(dp1839
g4
I26618
sg5
I34804
sg6
S'611'
p1840
sba(iRequest
Request
p1841
(dp1842
g4
I25374
sg5
I28598
sg6
S'612'
p1843
sba(iRequest
Request
p1844
(dp1845
g4
I7831
sg5
I9437
sg6
S'613'
p1846
sba(iRequest
Request
p1847
(dp1848
g4
I905
sg5
I5654
sg6
S'614'
p1849
sba(iRequest
Request
p1850
(dp1851
g4
I15133
sg5
I18984
sg6
S'615'
p1852
sba(iRequest
Request
p1853
(dp1854
g4
I32504
sg5
I40000
sg6
S'616'
p1855
sba(iRequest
Request
p1856
(dp1857
g4
I33150
sg5
I39532
sg6
S'617'
p1858
sba(iRequest
Request
p1859
(dp1860
g4
I41467
sg5
I41688
sg6
S'618'
p1861
sba(iRequest
Request
p1862
(dp1863
g4
I29539
sg5
I36048
sg6
S'619'
p1864
sba(iRequest
Request
p1865
(dp1866
g4
I9241
sg5
I12267
sg6
S'620'
p1867
sba(iRequest
Request
p1868
(dp1869
g4
I11814
sg5
I20433
sg6
S'621'
p1870
sba(iRequest
Request
p1871
(dp1872
g4
I7406
sg5
I15667
sg6
S'622'
p1873
sba(iRequest
Request
p1874
(dp1875
g4
I24135
sg5
I31009
sg6
S'623'
p1876
sba(iRequest
Request
p1877
(dp1878
g4
I22053
sg5
I22173
sg6
S'624'
p1879
sba(iRequest
Request
p1880
(dp1881
g4
I33684
sg5
I40763
sg6
S'625'
p1882
sba(iRequest
Request
p1883
(dp1884
g4
I28420
sg5
I37375
sg6
S'626'
p1885
sba(iRequest
Request
p1886
(dp1887
g4
I37997
sg5
I40803
sg6
S'627'
p1888
sba(iRequest
Request
p1889
(dp1890
g4
I1819
sg5
I4790
sg6
S'628'
p1891
sba(iRequest
Request
p1892
(dp1893
g4
I31506
sg5
I39383
sg6
S'629'
p1894
sba(iRequest
Request
p1895
(dp1896
g4
I20560
sg5
I21400
sg6
S'630'
p1897
sba(iRequest
Request
p1898
(dp1899
g4
I28305
sg5
I33091
sg6
S'631'
p1900
sba(iRequest
Request
p1901
(dp1902
g4
I38207
sg5
I40416
sg6
S'632'
p1903
sba(iRequest
Request
p1904
(dp1905
g4
I32835
sg5
I39632
sg6
S'633'
p1906
sba(iRequest
Request
p1907
(dp1908
g4
I13558
sg5
I17123
sg6
S'634'
p1909
sba(iRequest
Request
p1910
(dp1911
g4
I17244
sg5
I21560
sg6
S'635'
p1912
sba(iRequest
Request
p1913
(dp1914
g4
I17485
sg5
I25964
sg6
S'636'
p1915
sba(iRequest
Request
p1916
(dp1917
g4
I24581
sg5
I32643
sg6
S'637'
p1918
sba(iRequest
Request
p1919
(dp1920
g4
I19530
sg5
I28554
sg6
S'638'
p1921
sba(iRequest
Request
p1922
(dp1923
g4
I3296
sg5
I7090
sg6
S'639'
p1924
sba(iRequest
Request
p1925
(dp1926
g4
I30823
sg5
I33009
sg6
S'640'
p1927
sba(iRequest
Request
p1928
(dp1929
g4
I2927
sg5
I5428
sg6
S'641'
p1930
sba(iRequest
Request
p1931
(dp1932
g4
I6013
sg5
I11322
sg6
S'642'
p1933
sba(iRequest
Request
p1934
(dp1935
g4
I32767
sg5
I40050
sg6
S'643'
p1936
sba(iRequest
Request
p1937
(dp1938
g4
I31323
sg5
I35297
sg6
S'644'
p1939
sba(iRequest
Request
p1940
(dp1941
g4
I17481
sg5
I25331
sg6
S'645'
p1942
sba(iRequest
Request
p1943
(dp1944
g4
I34472
sg5
I37679
sg6
S'646'
p1945
sba(iRequest
Request
p1946
(dp1947
g4
I20156
sg5
I29703
sg6
S'647'
p1948
sba(iRequest
Request
p1949
(dp1950
g4
I28159
sg5
I34925
sg6
S'648'
p1951
sba(iRequest
Request
p1952
(dp1953
g4
I17594
sg5
I19841
sg6
S'649'
p1954
sba(iRequest
Request
p1955
(dp1956
g4
I24452
sg5
I27388
sg6
S'650'
p1957
sba(iRequest
Request
p1958
(dp1959
g4
I30951
sg5
I38840
sg6
S'651'
p1960
sba(iRequest
Request
p1961
(dp1962
g4
I17739
sg5
I26527
sg6
S'652'
p1963
sba(iRequest
Request
p1964
(dp1965
g4
I1397
sg5
I5576
sg6
S'653'
p1966
sba(iRequest
Request
p1967
(dp1968
g4
I11898
sg5
I19825
sg6
S'654'
p1969
sba(iRequest
Request
p1970
(dp1971
g4
I29423
sg5
I31351
sg6
S'655'
p1972
sba(iRequest
Request
p1973
(dp1974
g4
I25658
sg5
I32544
sg6
S'656'
p1975
sba(iRequest
Request
p1976
(dp1977
g4
I17330
sg5
I23715
sg6
S'657'
p1978
sba(iRequest
Request
p1979
(dp1980
g4
I28126
sg5
I33600
sg6
S'658'
p1981
sba(iRequest
Request
p1982
(dp1983
g4
I13168
sg5
I21321
sg6
S'659'
p1984
sba(iRequest
Request
p1985
(dp1986
g4
I33762
sg5
I35314
sg6
S'660'
p1987
sba(iRequest
Request
p1988
(dp1989
g4
I18395
sg5
I18500
sg6
S'661'
p1990
sba(iRequest
Request
p1991
(dp1992
g4
I1890
sg5
I4786
sg6
S'662'
p1993
sba(iRequest
Request
p1994
(dp1995
g4
I3089
sg5
I10322
sg6
S'663'
p1996
sba(iRequest
Request
p1997
(dp1998
g4
I34023
sg5
I35944
sg6
S'664'
p1999
sba(iRequest
Request
p2000
(dp2001
g4
I34825
sg5
I43137
sg6
S'665'
p2002
sba(iRequest
Request
p2003
(dp2004
g4
I997
sg5
I2392
sg6
S'666'
p2005
sba(iRequest
Request
p2006
(dp2007
g4
I11744
sg5
I16993
sg6
S'667'
p2008
sba(iRequest
Request
p2009
(dp2010
g4
I4188
sg5
I10995
sg6
S'668'
p2011
sba(iRequest
Request
p2012
(dp2013
g4
I35351
sg5
I38171
sg6
S'669'
p2014
sba(iRequest
Request
p2015
(dp2016
g4
I21905
sg5
I27639
sg6
S'670'
p2017
sba(iRequest
Request
p2018
(dp2019
g4
I35838
sg5
I41204
sg6
S'671'
p2020
sba(iRequest
Request
p2021
(dp2022
g4
I26816
sg5
I28576
sg6
S'672'
p2023
sba(iRequest
Request
p2024
(dp2025
g4
I6036
sg5
I6661
sg6
S'673'
p2026
sba(iRequest
Request
p2027
(dp2028
g4
I3000
sg5
I7395
sg6
S'674'
p2029
sba(iRequest
Request
p2030
(dp2031
g4
I3196
sg5
I11436
sg6
S'675'
p2032
sba(iRequest
Request
p2033
(dp2034
g4
I13449
sg5
I15511
sg6
S'676'
p2035
sba(iRequest
Request
p2036
(dp2037
g4
I7061
sg5
I13731
sg6
S'677'
p2038
sba(iRequest
Request
p2039
(dp2040
g4
I10590
sg5
I17906
sg6
S'678'
p2041
sba(iRequest
Request
p2042
(dp2043
g4
I7696
sg5
I13259
sg6
S'679'
p2044
sba(iRequest
Request
p2045
(dp2046
g4
I988
sg5
I9527
sg6
S'680'
p2047
sba(iRequest
Request
p2048
(dp2049
g4
I35511
sg5
I39623
sg6
S'681'
p2050
sba(iRequest
Request
p2051
(dp2052
g4
I10110
sg5
I13826
sg6
S'682'
p2053
sba(iRequest
Request
p2054
(dp2055
g4
I42661
sg5
I42939
sg6
S'683'
p2056
sba(iRequest
Request
p2057
(dp2058
g4
I23704
sg5
I24051
sg6
S'684'
p2059
sba(iRequest
Request
p2060
(dp2061
g4
I27866
sg5
I32716
sg6
S'685'
p2062
sba(iRequest
Request
p2063
(dp2064
g4
I31561
sg5
I36692
sg6
S'686'
p2065
sba(iRequest
Request
p2066
(dp2067
g4
I10433
sg5
I17339
sg6
S'687'
p2068
sba(iRequest
Request
p2069
(dp2070
g4
I29247
sg5
I32280
sg6
S'688'
p2071
sba(iRequest
Request
p2072
(dp2073
g4
I9787
sg5
I19279
sg6
S'689'
p2074
sba(iRequest
Request
p2075
(dp2076
g4
I37826
sg5
I40295
sg6
S'690'
p2077
sba(iRequest
Request
p2078
(dp2079
g4
I19959
sg5
I23627
sg6
S'691'
p2080
sba(iRequest
Request
p2081
(dp2082
g4
I3460
sg5
I4629
sg6
S'692'
p2083
sba(iRequest
Request
p2084
(dp2085
g4
I7864
sg5
I8867
sg6
S'693'
p2086
sba(iRequest
Request
p2087
(dp2088
g4
I6340
sg5
I10280
sg6
S'694'
p2089
sba(iRequest
Request
p2090
(dp2091
g4
I18798
sg5
I23902
sg6
S'695'
p2092
sba(iRequest
Request
p2093
(dp2094
g4
I18750
sg5
I22481
sg6
S'696'
p2095
sba(iRequest
Request
p2096
(dp2097
g4
I29023
sg5
I32652
sg6
S'697'
p2098
sba(iRequest
Request
p2099
(dp2100
g4
I25146
sg5
I29215
sg6
S'698'
p2101
sba(iRequest
Request
p2102
(dp2103
g4
I30815
sg5
I34060
sg6
S'699'
p2104
sba(iRequest
Request
p2105
(dp2106
g4
I21162
sg5
I25756
sg6
S'700'
p2107
sba(iRequest
Request
p2108
(dp2109
g4
I21342
sg5
I25671
sg6
S'701'
p2110
sba(iRequest
Request
p2111
(dp2112
g4
I35059
sg5
I39662
sg6
S'702'
p2113
sba(iRequest
Request
p2114
(dp2115
g4
I8427
sg5
I12054
sg6
S'703'
p2116
sba(iRequest
Request
p2117
(dp2118
g4
I14438
sg5
I17151
sg6
S'704'
p2119
sba(iRequest
Request
p2120
(dp2121
g4
I4278
sg5
I11996
sg6
S'705'
p2122
sba(iRequest
Request
p2123
(dp2124
g4
I29055
sg5
I38867
sg6
S'706'
p2125
sba(iRequest
Request
p2126
(dp2127
g4
I6710
sg5
I14868
sg6
S'707'
p2128
sba(iRequest
Request
p2129
(dp2130
g4
I26059
sg5
I26331
sg6
S'708'
p2131
sba(iRequest
Request
p2132
(dp2133
g4
I23688
sg5
I28700
sg6
S'709'
p2134
sba(iRequest
Request
p2135
(dp2136
g4
I28317
sg5
I33429
sg6
S'710'
p2137
sba(iRequest
Request
p2138
(dp2139
g4
I17744
sg5
I22223
sg6
S'711'
p2140
sba(iRequest
Request
p2141
(dp2142
g4
I33519
sg5
I35008
sg6
S'712'
p2143
sba(iRequest
Request
p2144
(dp2145
g4
I20461
sg5
I28283
sg6
S'713'
p2146
sba(iRequest
Request
p2147
(dp2148
g4
I16602
sg5
I17653
sg6
S'714'
p2149
sba(iRequest
Request
p2150
(dp2151
g4
I8903
sg5
I11444
sg6
S'715'
p2152
sba(iRequest
Request
p2153
(dp2154
g4
I2532
sg5
I7518
sg6
S'716'
p2155
sba(iRequest
Request
p2156
(dp2157
g4
I14925
sg5
I23745
sg6
S'717'
p2158
sba(iRequest
Request
p2159
(dp2160
g4
I16003
sg5
I19293
sg6
S'718'
p2161
sba(iRequest
Request
p2162
(dp2163
g4
I20904
sg5
I22116
sg6
S'719'
p2164
sba(iRequest
Request
p2165
(dp2166
g4
I36180
sg5
I39925
sg6
S'720'
p2167
sba(iRequest
Request
p2168
(dp2169
g4
I5212
sg5
I9016
sg6
S'721'
p2170
sba(iRequest
Request
p2171
(dp2172
g4
I20681
sg5
I29485
sg6
S'722'
p2173
sba(iRequest
Request
p2174
(dp2175
g4
I20193
sg5
I22880
sg6
S'723'
p2176
sba(iRequest
Request
p2177
(dp2178
g4
I30188
sg5
I34574
sg6
S'724'
p2179
sba(iRequest
Request
p2180
(dp2181
g4
I28234
sg5
I31703
sg6
S'725'
p2182
sba(iRequest
Request
p2183
(dp2184
g4
I32583
sg5
I36182
sg6
S'726'
p2185
sba(iRequest
Request
p2186
(dp2187
g4
I27864
sg5
I33376
sg6
S'727'
p2188
sba(iRequest
Request
p2189
(dp2190
g4
I16475
sg5
I25632
sg6
S'728'
p2191
sba(iRequest
Request
p2192
(dp2193
g4
I23151
sg5
I32275
sg6
S'729'
p2194
sba(iRequest
Request
p2195
(dp2196
g4
I10886
sg5
I15487
sg6
S'730'
p2197
sba(iRequest
Request
p2198
(dp2199
g4
I11451
sg5
I15936
sg6
S'731'
p2200
sba(iRequest
Request
p2201
(dp2202
g4
I10799
sg5
I13050
sg6
S'732'
p2203
sba(iRequest
Request
p2204
(dp2205
g4
I37703
sg5
I38295
sg6
S'733'
p2206
sba(iRequest
Request
p2207
(dp2208
g4
I11920
sg5
I14337
sg6
S'734'
p2209
sba(iRequest
Request
p2210
(dp2211
g4
I7320
sg5
I16840
sg6
S'735'
p2212
sba(iRequest
Request
p2213
(dp2214
g4
I17641
sg5
I19509
sg6
S'736'
p2215
sba(iRequest
Request
p2216
(dp2217
g4
I33184
sg5
I41633
sg6
S'737'
p2218
sba(iRequest
Request
p2219
(dp2220
g4
I24075
sg5
I30631
sg6
S'738'
p2221
sba(iRequest
Request
p2222
(dp2223
g4
I15028
sg5
I19350
sg6
S'739'
p2224
sba(iRequest
Request
p2225
(dp2226
g4
I40
sg5
I537
sg6
S'740'
p2227
sba(iRequest
Request
p2228
(dp2229
g4
I21977
sg5
I25051
sg6
S'741'
p2230
sba(iRequest
Request
p2231
(dp2232
g4
I10829
sg5
I18911
sg6
S'742'
p2233
sba(iRequest
Request
p2234
(dp2235
g4
I18096
sg5
I25967
sg6
S'743'
p2236
sba(iRequest
Request
p2237
(dp2238
g4
I34542
sg5
I41069
sg6
S'744'
p2239
sba(iRequest
Request
p2240
(dp2241
g4
I29581
sg5
I38947
sg6
S'745'
p2242
sba(iRequest
Request
p2243
(dp2244
g4
I9127
sg5
I15544
sg6
S'746'
p2245
sba(iRequest
Request
p2246
(dp2247
g4
I36447
sg5
I39743
sg6
S'747'
p2248
sba(iRequest
Request
p2249
(dp2250
g4
I4539
sg5
I14408
sg6
S'748'
p2251
sba(iRequest
Request
p2252
(dp2253
g4
I12690
sg5
I13528
sg6
S'749'
p2254
sba(iRequest
Request
p2255
(dp2256
g4
I28896
sg5
I31561
sg6
S'750'
p2257
sba(iRequest
Request
p2258
(dp2259
g4
I15176
sg5
I23324
sg6
S'751'
p2260
sba(iRequest
Request
p2261
(dp2262
g4
I6206
sg5
I9163
sg6
S'752'
p2263
sba(iRequest
Request
p2264
(dp2265
g4
I8855
sg5
I11191
sg6
S'753'
p2266
sba(iRequest
Request
p2267
(dp2268
g4
I17771
sg5
I27722
sg6
S'754'
p2269
sba(iRequest
Request
p2270
(dp2271
g4
I28052
sg5
I37174
sg6
S'755'
p2272
sba(iRequest
Request
p2273
(dp2274
g4
I10572
sg5
I16647
sg6
S'756'
p2275
sba(iRequest
Request
p2276
(dp2277
g4
I37394
sg5
I39136
sg6
S'757'
p2278
sba(iRequest
Request
p2279
(dp2280
g4
I18608
sg5
I21989
sg6
S'758'
p2281
sba(iRequest
Request
p2282
(dp2283
g4
I25123
sg5
I26224
sg6
S'759'
p2284
sba(iRequest
Request
p2285
(dp2286
g4
I37115
sg5
I38528
sg6
S'760'
p2287
sba(iRequest
Request
p2288
(dp2289
g4
I24074
sg5
I27228
sg6
S'761'
p2290
sba(iRequest
Request
p2291
(dp2292
g4
I31680
sg5
I40539
sg6
S'762'
p2293
sba(iRequest
Request
p2294
(dp2295
g4
I611
sg5
I5471
sg6
S'763'
p2296
sba(iRequest
Request
p2297
(dp2298
g4
I19599
sg5
I20679
sg6
S'764'
p2299
sba(iRequest
Request
p2300
(dp2301
g4
I17861
sg5
I20078
sg6
S'765'
p2302
sba(iRequest
Request
p2303
(dp2304
g4
I5457
sg5
I13019
sg6
S'766'
p2305
sba(iRequest
Request
p2306
(dp2307
g4
I18
sg5
I1735
sg6
S'767'
p2308
sba(iRequest
Request
p2309
(dp2310
g4
I35512
sg5
I39033
sg6
S'768'
p2311
sba(iRequest
Request
p2312
(dp2313
g4
I19122
sg5
I23794
sg6
S'769'
p2314
sba(iRequest
Request
p2315
(dp2316
g4
I23296
sg5
I30704
sg6
S'770'
p2317
sba(iRequest
Request
p2318
(dp2319
g4
I14519
sg5
I15011
sg6
S'771'
p2320
sba(iRequest
Request
p2321
(dp2322
g4
I15130
sg5
I23993
sg6
S'772'
p2323
sba(iRequest
Request
p2324
(dp2325
g4
I6259
sg5
I12275
sg6
S'773'
p2326
sba(iRequest
Request
p2327
(dp2328
g4
I2722
sg5
I10518
sg6
S'774'
p2329
sba(iRequest
Request
p2330
(dp2331
g4
I30758
sg5
I34250
sg6
S'775'
p2332
sba(iRequest
Request
p2333
(dp2334
g4
I21273
sg5
I21667
sg6
S'776'
p2335
sba(iRequest
Request
p2336
(dp2337
g4
I18167
sg5
I20448
sg6
S'777'
p2338
sba(iRequest
Request
p2339
(dp2340
g4
I11392
sg5
I19348
sg6
S'778'
p2341
sba(iRequest
Request
p2342
(dp2343
g4
I38209
sg5
I41199
sg6
S'779'
p2344
sba(iRequest
Request
p2345
(dp2346
g4
I20476
sg5
I24504
sg6
S'780'
p2347
sba(iRequest
Request
p2348
(dp2349
g4
I25514
sg5
I29733
sg6
S'781'
p2350
sba(iRequest
Request
p2351
(dp2352
g4
I30359
sg5
I32758
sg6
S'782'
p2353
sba(iRequest
Request
p2354
(dp2355
g4
I15893
sg5
I17783
sg6
S'783'
p2356
sba(iRequest
Request
p2357
(dp2358
g4
I11686
sg5
I20615
sg6
S'784'
p2359
sba(iRequest
Request
p2360
(dp2361
g4
I19458
sg5
I28716
sg6
S'785'
p2362
sba(iRequest
Request
p2363
(dp2364
g4
I33351
sg5
I41059
sg6
S'786'
p2365
sba(iRequest
Request
p2366
(dp2367
g4
I22657
sg5
I23703
sg6
S'787'
p2368
sba(iRequest
Request
p2369
(dp2370
g4
I6961
sg5
I9082
sg6
S'788'
p2371
sba(iRequest
Request
p2372
(dp2373
g4
I33071
sg5
I36772
sg6
S'789'
p2374
sba(iRequest
Request
p2375
(dp2376
g4
I8395
sg5
I12836
sg6
S'790'
p2377
sba(iRequest
Request
p2378
(dp2379
g4
I30859
sg5
I37107
sg6
S'791'
p2380
sba(iRequest
Request
p2381
(dp2382
g4
I28754
sg5
I35116
sg6
S'792'
p2383
sba(iRequest
Request
p2384
(dp2385
g4
I21752
sg5
I28932
sg6
S'793'
p2386
sba(iRequest
Request
p2387
(dp2388
g4
I14439
sg5
I22686
sg6
S'794'
p2389
sba(iRequest
Request
p2390
(dp2391
g4
I9416
sg5
I11272
sg6
S'795'
p2392
sba(iRequest
Request
p2393
(dp2394
g4
I24029
sg5
I25040
sg6
S'796'
p2395
sba(iRequest
Request
p2396
(dp2397
g4
I19516
sg5
I23091
sg6
S'797'
p2398
sba(iRequest
Request
p2399
(dp2400
g4
I3365
sg5
I7895
sg6
S'798'
p2401
sba(iRequest
Request
p2402
(dp2403
g4
I9169
sg5
I15887
sg6
S'799'
p2404
sba(iRequest
Request
p2405
(dp2406
g4
I1301
sg5
I5502
sg6
S'800'
p2407
sba(iRequest
Request
p2408
(dp2409
g4
I26936
sg5
I35350
sg6
S'801'
p2410
sba(iRequest
Request
p2411
(dp2412
g4
I3263
sg5
I5182
sg6
S'802'
p2413
sba(iRequest
Request
p2414
(dp2415
g4
I38591
sg5
I40088
sg6
S'803'
p2416
sba(iRequest
Request
p2417
(dp2418
g4
I34894
sg5
I38254
sg6
S'804'
p2419
sba(iRequest
Request
p2420
(dp2421
g4
I5798
sg5
I14683
sg6
S'805'
p2422
sba(iRequest
Request
p2423
(dp2424
g4
I31154
sg5
I39349
sg6
S'806'
p2425
sba(iRequest
Request
p2426
(dp2427
g4
I27069
sg5
I34037
sg6
S'807'
p2428
sba(iRequest
Request
p2429
(dp2430
g4
I10738
sg5
I20633
sg6
S'808'
p2431
sba(iRequest
Request
p2432
(dp2433
g4
I10695
sg5
I11105
sg6
S'809'
p2434
sba(iRequest
Request
p2435
(dp2436
g4
I5209
sg5
I8291
sg6
S'810'
p2437
sba(iRequest
Request
p2438
(dp2439
g4
I17176
sg5
I23820
sg6
S'811'
p2440
sba(iRequest
Request
p2441
(dp2442
g4
I23006
sg5
I27433
sg6
S'812'
p2443
sba(iRequest
Request
p2444
(dp2445
g4
I15386
sg5
I24451
sg6
S'813'
p2446
sba(iRequest
Request
p2447
(dp2448
g4
I20478
sg5
I20977
sg6
S'814'
p2449
sba(iRequest
Request
p2450
(dp2451
g4
I30880
sg5
I38412
sg6
S'815'
p2452
sba(iRequest
Request
p2453
(dp2454
g4
I6279
sg5
I7558
sg6
S'816'
p2455
sba(iRequest
Request
p2456
(dp2457
g4
I21528
sg5
I23668
sg6
S'817'
p2458
sba(iRequest
Request
p2459
(dp2460
g4
I33324
sg5
I38505
sg6
S'818'
p2461
sba(iRequest
Request
p2462
(dp2463
g4
I28402
sg5
I29914
sg6
S'819'
p2464
sba(iRequest
Request
p2465
(dp2466
g4
I6977
sg5
I13453
sg6
S'820'
p2467
sba(iRequest
Request
p2468
(dp2469
g4
I6655
sg5
I13088
sg6
S'821'
p2470
sba(iRequest
Request
p2471
(dp2472
g4
I21705
sg5
I23033
sg6
S'822'
p2473
sba(iRequest
Request
p2474
(dp2475
g4
I23093
sg5
I27694
sg6
S'823'
p2476
sba(iRequest
Request
p2477
(dp2478
g4
I13583
sg5
I16329
sg6
S'824'
p2479
sba(iRequest
Request
p2480
(dp2481
g4
I13689
sg5
I19304
sg6
S'825'
p2482
sba(iRequest
Request
p2483
(dp2484
g4
I22975
sg5
I30717
sg6
S'826'
p2485
sba(iRequest
Request
p2486
(dp2487
g4
I4593
sg5
I10430
sg6
S'827'
p2488
sba(iRequest
Request
p2489
(dp2490
g4
I12720
sg5
I20710
sg6
S'828'
p2491
sba(iRequest
Request
p2492
(dp2493
g4
I10193
sg5
I11426
sg6
S'829'
p2494
sba(iRequest
Request
p2495
(dp2496
g4
I18406
sg5
I22768
sg6
S'830'
p2497
sba(iRequest
Request
p2498
(dp2499
g4
I38031
sg5
I41130
sg6
S'831'
p2500
sba(iRequest
Request
p2501
(dp2502
g4
I26391
sg5
I27059
sg6
S'832'
p2503
sba(iRequest
Request
p2504
(dp2505
g4
I13325
sg5
I16444
sg6
S'833'
p2506
sba(iRequest
Request
p2507
(dp2508
g4
I15094
sg5
I24485
sg6
S'834'
p2509
sba(iRequest
Request
p2510
(dp2511
g4
I11916
sg5
I17047
sg6
S'835'
p2512
sba(iRequest
Request
p2513
(dp2514
g4
I25664
sg5
I32030
sg6
S'836'
p2515
sba(iRequest
Request
p2516
(dp2517
g4
I9432
sg5
I14595
sg6
S'837'
p2518
sba(iRequest
Request
p2519
(dp2520
g4
I10490
sg5
I18410
sg6
S'838'
p2521
sba(iRequest
Request
p2522
(dp2523
g4
I6177
sg5
I10764
sg6
S'839'
p2524
sba(iRequest
Request
p2525
(dp2526
g4
I2891
sg5
I12393
sg6
S'840'
p2527
sba(iRequest
Request
p2528
(dp2529
g4
I10600
sg5
I18925
sg6
S'841'
p2530
sba(iRequest
Request
p2531
(dp2532
g4
I5664
sg5
I10361
sg6
S'842'
p2533
sba(iRequest
Request
p2534
(dp2535
g4
I20225
sg5
I20913
sg6
S'843'
p2536
sba(iRequest
Request
p2537
(dp2538
g4
I16981
sg5
I21742
sg6
S'844'
p2539
sba(iRequest
Request
p2540
(dp2541
g4
I17454
sg5
I19137
sg6
S'845'
p2542
sba(iRequest
Request
p2543
(dp2544
g4
I8048
sg5
I15969
sg6
S'846'
p2545
sba(iRequest
Request
p2546
(dp2547
g4
I6362
sg5
I10469
sg6
S'847'
p2548
sba(iRequest
Request
p2549
(dp2550
g4
I36969
sg5
I38767
sg6
S'848'
p2551
sba(iRequest
Request
p2552
(dp2553
g4
I16588
sg5
I21391
sg6
S'849'
p2554
sba(iRequest
Request
p2555
(dp2556
g4
I379
sg5
I8771
sg6
S'850'
p2557
sba(iRequest
Request
p2558
(dp2559
g4
I16866
sg5
I22132
sg6
S'851'
p2560
sba(iRequest
Request
p2561
(dp2562
g4
I12127
sg5
I15018
sg6
S'852'
p2563
sba(iRequest
Request
p2564
(dp2565
g4
I28722
sg5
I37391
sg6
S'853'
p2566
sba(iRequest
Request
p2567
(dp2568
g4
I16556
sg5
I25299
sg6
S'854'
p2569
sba(iRequest
Request
p2570
(dp2571
g4
I10772
sg5
I12857
sg6
S'855'
p2572
sba(iRequest
Request
p2573
(dp2574
g4
I36049
sg5
I38432
sg6
S'856'
p2575
sba(iRequest
Request
p2576
(dp2577
g4
I8597
sg5
I10372
sg6
S'857'
p2578
sba(iRequest
Request
p2579
(dp2580
g4
I399
sg5
I9331
sg6
S'858'
p2581
sba(iRequest
Request
p2582
(dp2583
g4
I33516
sg5
I37682
sg6
S'859'
p2584
sba(iRequest
Request
p2585
(dp2586
g4
I27899
sg5
I34539
sg6
S'860'
p2587
sba(iRequest
Request
p2588
(dp2589
g4
I26472
sg5
I27388
sg6
S'861'
p2590
sba(iRequest
Request
p2591
(dp2592
g4
I26060
sg5
I34445
sg6
S'862'
p2593
sba(iRequest
Request
p2594
(dp2595
g4
I9710
sg5
I17529
sg6
S'863'
p2596
sba(iRequest
Request
p2597
(dp2598
g4
I9536
sg5
I11443
sg6
S'864'
p2599
sba(iRequest
Request
p2600
(dp2601
g4
I12986
sg5
I22874
sg6
S'865'
p2602
sba(iRequest
Request
p2603
(dp2604
g4
I8067
sg5
I11737
sg6
S'866'
p2605
sba(iRequest
Request
p2606
(dp2607
g4
I2210
sg5
I6727
sg6
S'867'
p2608
sba(iRequest
Request
p2609
(dp2610
g4
I36371
sg5
I42555
sg6
S'868'
p2611
sba(iRequest
Request
p2612
(dp2613
g4
I7829
sg5
I11197
sg6
S'869'
p2614
sba(iRequest
Request
p2615
(dp2616
g4
I27417
sg5
I36684
sg6
S'870'
p2617
sba(iRequest
Request
p2618
(dp2619
g4
I14166
sg5
I24110
sg6
S'871'
p2620
sba(iRequest
Request
p2621
(dp2622
g4
I38267
sg5
I38542
sg6
S'872'
p2623
sba(iRequest
Request
p2624
(dp2625
g4
I216
sg5
I412
sg6
S'873'
p2626
sba(iRequest
Request
p2627
(dp2628
g4
I27250
sg5
I30523
sg6
S'874'
p2629
sba(iRequest
Request
p2630
(dp2631
g4
I34560
sg5
I37417
sg6
S'875'
p2632
sba(iRequest
Request
p2633
(dp2634
g4
I13027
sg5
I19450
sg6
S'876'
p2635
sba(iRequest
Request
p2636
(dp2637
g4
I15270
sg5
I17330
sg6
S'877'
p2638
sba(iRequest
Request
p2639
(dp2640
g4
I28452
sg5
I37469
sg6
S'878'
p2641
sba(iRequest
Request
p2642
(dp2643
g4
I12631
sg5
I19849
sg6
S'879'
p2644
sba(iRequest
Request
p2645
(dp2646
g4
I31797
sg5
I33887
sg6
S'880'
p2647
sba(iRequest
Request
p2648
(dp2649
g4
I3346
sg5
I10125
sg6
S'881'
p2650
sba(iRequest
Request
p2651
(dp2652
g4
I21748
sg5
I24663
sg6
S'882'
p2653
sba(iRequest
Request
p2654
(dp2655
g4
I14747
sg5
I20296
sg6
S'883'
p2656
sba(iRequest
Request
p2657
(dp2658
g4
I16060
sg5
I26059
sg6
S'884'
p2659
sba(iRequest
Request
p2660
(dp2661
g4
I18984
sg5
I23642
sg6
S'885'
p2662
sba(iRequest
Request
p2663
(dp2664
g4
I6012
sg5
I11513
sg6
S'886'
p2665
sba(iRequest
Request
p2666
(dp2667
g4
I35081
sg5
I36414
sg6
S'887'
p2668
sba(iRequest
Request
p2669
(dp2670
g4
I34823
sg5
I41777
sg6
S'888'
p2671
sba(iRequest
Request
p2672
(dp2673
g4
I27552
sg5
I33995
sg6
S'889'
p2674
sba(iRequest
Request
p2675
(dp2676
g4
I32979
sg5
I35095
sg6
S'890'
p2677
sba(iRequest
Request
p2678
(dp2679
g4
I11574
sg5
I20530
sg6
S'891'
p2680
sba(iRequest
Request
p2681
(dp2682
g4
I40316
sg5
I42073
sg6
S'892'
p2683
sba(iRequest
Request
p2684
(dp2685
g4
I23493
sg5
I32079
sg6
S'893'
p2686
sba(iRequest
Request
p2687
(dp2688
g4
I12194
sg5
I12908
sg6
S'894'
p2689
sba(iRequest
Request
p2690
(dp2691
g4
I7499
sg5
I16443
sg6
S'895'
p2692
sba(iRequest
Request
p2693
(dp2694
g4
I9586
sg5
I11302
sg6
S'896'
p2695
sba(iRequest
Request
p2696
(dp2697
g4
I8633
sg5
I10807
sg6
S'897'
p2698
sba(iRequest
Request
p2699
(dp2700
g4
I25052
sg5
I34069
sg6
S'898'
p2701
sba(iRequest
Request
p2702
(dp2703
g4
I10676
sg5
I20132
sg6
S'899'
p2704
sba(iRequest
Request
p2705
(dp2706
g4
I18121
sg5
I26982
sg6
S'900'
p2707
sba(iRequest
Request
p2708
(dp2709
g4
I15033
sg5
I24643
sg6
S'901'
p2710
sba(iRequest
Request
p2711
(dp2712
g4
I36135
sg5
I42976
sg6
S'902'
p2713
sba(iRequest
Request
p2714
(dp2715
g4
I23490
sg5
I26756
sg6
S'903'
p2716
sba(iRequest
Request
p2717
(dp2718
g4
I33853
sg5
I42166
sg6
S'904'
p2719
sba(iRequest
Request
p2720
(dp2721
g4
I19192
sg5
I19455
sg6
S'905'
p2722
sba(iRequest
Request
p2723
(dp2724
g4
I5014
sg5
I10898
sg6
S'906'
p2725
sba(iRequest
Request
p2726
(dp2727
g4
I26420
sg5
I33089
sg6
S'907'
p2728
sba(iRequest
Request
p2729
(dp2730
g4
I5908
sg5
I14861
sg6
S'908'
p2731
sba(iRequest
Request
p2732
(dp2733
g4
I24853
sg5
I26415
sg6
S'909'
p2734
sba(iRequest
Request
p2735
(dp2736
g4
I3772
sg5
I9887
sg6
S'910'
p2737
sba(iRequest
Request
p2738
(dp2739
g4
I2533
sg5
I4051
sg6
S'911'
p2740
sba(iRequest
Request
p2741
(dp2742
g4
I26727
sg5
I34822
sg6
S'912'
p2743
sba(iRequest
Request
p2744
(dp2745
g4
I16028
sg5
I20826
sg6
S'913'
p2746
sba(iRequest
Request
p2747
(dp2748
g4
I4061
sg5
I5464
sg6
S'914'
p2749
sba(iRequest
Request
p2750
(dp2751
g4
I21158
sg5
I26333
sg6
S'915'
p2752
sba(iRequest
Request
p2753
(dp2754
g4
I13846
sg5
I19349
sg6
S'916'
p2755
sba(iRequest
Request
p2756
(dp2757
g4
I735
sg5
I3503
sg6
S'917'
p2758
sba(iRequest
Request
p2759
(dp2760
g4
I18552
sg5
I23593
sg6
S'918'
p2761
sba(iRequest
Request
p2762
(dp2763
g4
I16061
sg5
I23572
sg6
S'919'
p2764
sba(iRequest
Request
p2765
(dp2766
g4
I812
sg5
I9443
sg6
S'920'
p2767
sba(iRequest
Request
p2768
(dp2769
g4
I15796
sg5
I16969
sg6
S'921'
p2770
sba(iRequest
Request
p2771
(dp2772
g4
I37083
sg5
I42929
sg6
S'922'
p2773
sba(iRequest
Request
p2774
(dp2775
g4
I4501
sg5
I12657
sg6
S'923'
p2776
sba(iRequest
Request
p2777
(dp2778
g4
I29666
sg5
I36096
sg6
S'924'
p2779
sba(iRequest
Request
p2780
(dp2781
g4
I6307
sg5
I15801
sg6
S'925'
p2782
sba(iRequest
Request
p2783
(dp2784
g4
I33482
sg5
I36603
sg6
S'926'
p2785
sba(iRequest
Request
p2786
(dp2787
g4
I14176
sg5
I19218
sg6
S'927'
p2788
sba(iRequest
Request
p2789
(dp2790
g4
I33828
sg5
I36360
sg6
S'928'
p2791
sba(iRequest
Request
p2792
(dp2793
g4
I28835
sg5
I37501
sg6
S'929'
p2794
sba(iRequest
Request
p2795
(dp2796
g4
I2463
sg5
I7263
sg6
S'930'
p2797
sba(iRequest
Request
p2798
(dp2799
g4
I15698
sg5
I18390
sg6
S'931'
p2800
sba(iRequest
Request
p2801
(dp2802
g4
I27493
sg5
I28512
sg6
S'932'
p2803
sba(iRequest
Request
p2804
(dp2805
g4
I18922
sg5
I25891
sg6
S'933'
p2806
sba(iRequest
Request
p2807
(dp2808
g4
I33175
sg5
I36412
sg6
S'934'
p2809
sba(iRequest
Request
p2810
(dp2811
g4
I4353
sg5
I10031
sg6
S'935'
p2812
sba(iRequest
Request
p2813
(dp2814
g4
I22741
sg5
I22904
sg6
S'936'
p2815
sba(iRequest
Request
p2816
(dp2817
g4
I12960
sg5
I15298
sg6
S'937'
p2818
sba(iRequest
Request
p2819
(dp2820
g4
I36597
sg5
I42406
sg6
S'938'
p2821
sba(iRequest
Request
p2822
(dp2823
g4
I26104
sg5
I29831
sg6
S'939'
p2824
sba(iRequest
Request
p2825
(dp2826
g4
I16531
sg5
I25654
sg6
S'940'
p2827
sba(iRequest
Request
p2828
(dp2829
g4
I20818
sg5
I24804
sg6
S'941'
p2830
sba(iRequest
Request
p2831
(dp2832
g4
I5657
sg5
I7674
sg6
S'942'
p2833
sba(iRequest
Request
p2834
(dp2835
g4
I5716
sg5
I13085
sg6
S'943'
p2836
sba(iRequest
Request
p2837
(dp2838
g4
I2172
sg5
I3270
sg6
S'944'
p2839
sba(iRequest
Request
p2840
(dp2841
g4
I15837
sg5
I24233
sg6
S'945'
p2842
sba(iRequest
Request
p2843
(dp2844
g4
I8018
sg5
I8826
sg6
S'946'
p2845
sba(iRequest
Request
p2846
(dp2847
g4
I25469
sg5
I34446
sg6
S'947'
p2848
sba(iRequest
Request
p2849
(dp2850
g4
I3454
sg5
I12530
sg6
S'948'
p2851
sba(iRequest
Request
p2852
(dp2853
g4
I30618
sg5
I37113
sg6
S'949'
p2854
sba(iRequest
Request
p2855
(dp2856
g4
I34564
sg5
I38665
sg6
S'950'
p2857
sba(iRequest
Request
p2858
(dp2859
g4
I13324
sg5
I14483
sg6
S'951'
p2860
sba(iRequest
Request
p2861
(dp2862
g4
I10056
sg5
I17259
sg6
S'952'
p2863
sba(iRequest
Request
p2864
(dp2865
g4
I18655
sg5
I20368
sg6
S'953'
p2866
sba(iRequest
Request
p2867
(dp2868
g4
I36655
sg5
I37783
sg6
S'954'
p2869
sba(iRequest
Request
p2870
(dp2871
g4
I13913
sg5
I23352
sg6
S'955'
p2872
sba(iRequest
Request
p2873
(dp2874
g4
I13116
sg5
I15549
sg6
S'956'
p2875
sba(iRequest
Request
p2876
(dp2877
g4
I18121
sg5
I24224
sg6
S'957'
p2878
sba(iRequest
Request
p2879
(dp2880
g4
I26509
sg5
I31584
sg6
S'958'
p2881
sba(iRequest
Request
p2882
(dp2883
g4
I36014
sg5
I38295
sg6
S'959'
p2884
sba(iRequest
Request
p2885
(dp2886
g4
I11685
sg5
I17727
sg6
S'960'
p2887
sba(iRequest
Request
p2888
(dp2889
g4
I27175
sg5
I34993
sg6
S'961'
p2890
sba(iRequest
Request
p2891
(dp2892
g4
I15584
sg5
I16721
sg6
S'962'
p2893
sba(iRequest
Request
p2894
(dp2895
g4
I18320
sg5
I22072
sg6
S'963'
p2896
sba(iRequest
Request
p2897
(dp2898
g4
I1868
sg5
I7593
sg6
S'964'
p2899
sba(iRequest
Request
p2900
(dp2901
g4
I14401
sg5
I24287
sg6
S'965'
p2902
sba(iRequest
Request
p2903
(dp2904
g4
I22465
sg5
I28916
sg6
S'966'
p2905
sba(iRequest
Request
p2906
(dp2907
g4
I38684
sg5
I43107
sg6
S'967'
p2908
sba(iRequest
Request
p2909
(dp2910
g4
I31686
sg5
I41113
sg6
S'968'
p2911
sba(iRequest
Request
p2912
(dp2913
g4
I9670
sg5
I17693
sg6
S'969'
p2914
sba(iRequest
Request
p2915
(dp2916
g4
I31187
sg5
I31839
sg6
S'970'
p2917
sba(iRequest
Request
p2918
(dp2919
g4
I4265
sg5
I9908
sg6
S'971'
p2920
sba(iRequest
Request
p2921
(dp2922
g4
I11401
sg5
I19993
sg6
S'972'
p2923
sba(iRequest
Request
p2924
(dp2925
g4
I32108
sg5
I41505
sg6
S'973'
p2926
sba(iRequest
Request
p2927
(dp2928
g4
I22181
sg5
I29582
sg6
S'974'
p2929
sba(iRequest
Request
p2930
(dp2931
g4
I26480
sg5
I31356
sg6
S'975'
p2932
sba(iRequest
Request
p2933
(dp2934
g4
I16294
sg5
I19578
sg6
S'976'
p2935
sba(iRequest
Request
p2936
(dp2937
g4
I354
sg5
I2921
sg6
S'977'
p2938
sba(iRequest
Request
p2939
(dp2940
g4
I39450
sg5
I41587
sg6
S'978'
p2941
sba(iRequest
Request
p2942
(dp2943
g4
I22560
sg5
I28907
sg6
S'979'
p2944
sba(iRequest
Request
p2945
(dp2946
g4
I9180
sg5
I10370
sg6
S'980'
p2947
sba(iRequest
Request
p2948
(dp2949
g4
I8443
sg5
I17421
sg6
S'981'
p2950
sba(iRequest
Request
p2951
(dp2952
g4
I17672
sg5
I23904
sg6
S'982'
p2953
sba(iRequest
Request
p2954
(dp2955
g4
I11327
sg5
I12504
sg6
S'983'
p2956
sba(iRequest
Request
p2957
(dp2958
g4
I30640
sg5
I37180
sg6
S'984'
p2959
sba(iRequest
Request
p2960
(dp2961
g4
I8500
sg5
I10536
sg6
S'985'
p2962
sba(iRequest
Request
p2963
(dp2964
g4
I23962
sg5
I26911
sg6
S'986'
p2965
sba(iRequest
Request
p2966
(dp2967
g4
I13600
sg5
I19180
sg6
S'987'
p2968
sba(iRequest
Request
p2969
(dp2970
g4
I33794
sg5
I34463
sg6
S'988'
p2971
sba(iRequest
Request
p2972
(dp2973
g4
I19466
sg5
I22092
sg6
S'989'
p2974
sba(iRequest
Request
p2975
(dp2976
g4
I24171
sg5
I33473
sg6
S'990'
p2977
sba(iRequest
Request
p2978
(dp2979
g4
I27591
sg5
I31449
sg6
S'991'
p2980
sba(iRequest
Request
p2981
(dp2982
g4
I15098
sg5
I24513
sg6
S'992'
p2983
sba(iRequest
Request
p2984
(dp2985
g4
I24692
sg5
I31869
sg6
S'993'
p2986
sba(iRequest
Request
p2987
(dp2988
g4
I7394
sg5
I10369
sg6
S'994'
p2989
sba(iRequest
Request
p2990
(dp2991
g4
I4179
sg5
I7950
sg6
S'995'
p2992
sba(iRequest
Request
p2993
(dp2994
g4
I8268
sg5
I10850
sg6
S'996'
p2995
sba(iRequest
Request
p2996
(dp2997
g4
I5417
sg5
I11952
sg6
S'997'
p2998
sba(iRequest
Request
p2999
(dp3000
g4
I26119
sg5
I35495
sg6
S'998'
p3001
sba(iRequest
Request
p3002
(dp3003
g4
I28306
sg5
I34942
sg6
S'999'
p3004
sbaa.