(lp0
I41082
a(lp1
(iRequest
Request
p2
(dp3
S'start'
p4
I31260
sS'end'
p5
I32261
sS'name'
p6
S'0'
p7
sba(iRequest
Request
p8
(dp9
g4
I14433
sg5
I15434
sg6
S'1'
p10
sba(iRequest
Request
p11
(dp12
g4
I8218
sg5
I9219
sg6
S'2'
p13
sba(iRequest
Request
p14
(dp15
g4
I9420
sg5
I10421
sg6
S'3'
p16
sba(iRequest
Request
p17
(dp18
g4
I42144
sg5
I43145
sg6
S'4'
p19
sba(iRequest
Request
p20
(dp21
g4
I39432
sg5
I40433
sg6
S'5'
p22
sba(iRequest
Request
p23
(dp24
g4
I28404
sg5
I29405
sg6
S'6'
p25
sba(iRequest
Request
p26
(dp27
g4
I21746
sg5
I22747
sg6
S'7'
p28
sba(iRequest
Request
p29
(dp30
g4
I14355
sg5
I15356
sg6
S'8'
p31
sba(iRequest
Request
p32
(dp33
g4
I38582
sg5
I39583
sg6
S'9'
p34
sba(iRequest
Request
p35
(dp36
g4
I16005
sg5
I17006
sg6
S'10'
p37
sba(iRequest
Request
p38
(dp39
g4
I26123
sg5
I27124
sg6
S'11'
p40
sba(iRequest
Request
p41
(dp42
g4
I1281
sg5
I2282
sg6
S'12'
p43
sba(iRequest
Request
p44
(dp45
g4
I15588
sg5
I16589
sg6
S'13'
p46
sba(iRequest
Request
p47
(dp48
g4
I21130
sg5
I22131
sg6
S'14'
p49
sba(iRequest
Request
p50
(dp51
g4
I33334
sg5
I34335
sg6
S'15'
p52
sba(iRequest
Request
p53
(dp54
g4
I19582
sg5
I20583
sg6
S'16'
p55
sba(iRequest
Request
p56
(dp57
g4
I28530
sg5
I29531
sg6
S'17'
p58
sba(iRequest
Request
p59
(dp60
g4
I3249
sg5
I4250
sg6
S'18'
p61
sba(iRequest
Request
p62
(dp63
g4
I17412
sg5
I18413
sg6
S'19'
p64
sba(iRequest
Request
p65
(dp66
g4
I19328
sg5
I20329
sg6
S'20'
p67
sba(iRequest
Request
p68
(dp69
g4
I13935
sg5
I14936
sg6
S'21'
p70
sba(iRequest
Request
p71
(dp72
g4
I19927
sg5
I20928
sg6
S'22'
p73
sba(iRequest
Request
p74
(dp75
g4
I22081
sg5
I23082
sg6
S'23'
p76
sba(iRequest
Request
p77
(dp78
g4
I41116
sg5
I42117
sg6
S'24'
p79
sba(iRequest
Request
p80
(dp81
g4
I14075
sg5
I15076
sg6
S'25'
p82
sba(iRequest
Request
p83
(dp84
g4
I6755
sg5
I7756
sg6
S'26'
p85
sba(iRequest
Request
p86
(dp87
g4
I10179
sg5
I11180
sg6
S'27'
p88
sba(iRequest
Request
p89
(dp90
g4
I37735
sg5
I38736
sg6
S'28'
p91
sba(iRequest
Request
p92
(dp93
g4
I16789
sg5
I17790
sg6
S'29'
p94
sba(iRequest
Request
p95
(dp96
g4
I34009
sg5
I35010
sg6
S'30'
p97
sba(iRequest
Request
p98
(dp99
g4
I22526
sg5
I23527
sg6
S'31'
p100
sba(iRequest
Request
p101
(dp102
g4
I27469
sg5
I28470
sg6
S'32'
p103
sba(iRequest
Request
p104
(dp105
g4
I9592
sg5
I10593
sg6
S'33'
p106
sba(iRequest
Request
p107
(dp108
g4
I32063
sg5
I33064
sg6
S'34'
p109
sba(iRequest
Request
p110
(dp111
g4
I8834
sg5
I9835
sg6
S'35'
p112
sba(iRequest
Request
p113
(dp114
g4
I38488
sg5
I39489
sg6
S'36'
p115
sba(iRequest
Request
p116
(dp117
g4
I41589
sg5
I42590
sg6
S'37'
p118
sba(iRequest
Request
p119
(dp120
g4
I30898
sg5
I31899
sg6
S'38'
p121
sba(iRequest
Request
p122
(dp123
g4
I31041
sg5
I32042
sg6
S'39'
p124
sba(iRequest
Request
p125
(dp126
g4
I40083
sg5
I41084
sg6
S'40'
p127
sba(iRequest
Request
p128
(dp129
g4
I27028
sg5
I28029
sg6
S'41'
p130
sba(iRequest
Request
p131
(dp132
g4
I36264
sg5
I37265
sg6
S'42'
p133
sba(iRequest
Request
p134
(dp135
g4
I18472
sg5
I19473
sg6
S'43'
p136
sba(iRequest
Request
p137
(dp138
g4
I1488
sg5
I2489
sg6
S'44'
p139
sba(iRequest
Request
p140
(dp141
g4
I23621
sg5
I24622
sg6
S'45'
p142
sba(iRequest
Request
p143
(dp144
g4
I34419
sg5
I35420
sg6
S'46'
p145
sba(iRequest
Request
p146
(dp147
g4
I26658
sg5
I27659
sg6
S'47'
p148
sba(iRequest
Request
p149
(dp150
g4
I23178
sg5
I24179
sg6
S'48'
p151
sba(iRequest
Request
p152
(dp153
g4
I3672
sg5
I4673
sg6
S'49'
p154
sba(iRequest
Request
p155
(dp156
g4
I21657
sg5
I22658
sg6
S'50'
p157
sba(iRequest
Request
p158
(dp159
g4
I2886
sg5
I3887
sg6
S'51'
p160
sba(iRequest
Request
p161
(dp162
g4
I15732
sg5
I16733
sg6
S'52'
p163
sba(iRequest
Request
p164
(dp165
g4
I5968
sg5
I6969
sg6
S'53'
p166
sba(iRequest
Request
p167
(dp168
g4
I4010
sg5
I5011
sg6
S'54'
p169
sba(iRequest
Request
p170
(dp171
g4
I26450
sg5
I27451
sg6
S'55'
p172
sba(iRequest
Request
p173
(dp174
g4
I972
sg5
I1973
sg6
S'56'
p175
sba(iRequest
Request
p176
(dp177
g4
I5510
sg5
I6511
sg6
S'57'
p178
sba(iRequest
Request
p179
(dp180
g4
I4088
sg5
I5089
sg6
S'58'
p181
sba(iRequest
Request
p182
(dp183
g4
I36309
sg5
I37310
sg6
S'59'
p184
sba(iRequest
Request
p185
(dp186
g4
I30868
sg5
I31869
sg6
S'60'
p187
sba(iRequest
Request
p188
(dp189
g4
I31484
sg5
I32485
sg6
S'61'
p190
sba(iRequest
Request
p191
(dp192
g4
I22797
sg5
I23798
sg6
S'62'
p193
sba(iRequest
Request
p194
(dp195
g4
I20629
sg5
I21630
sg6
S'63'
p196
sba(iRequest
Request
p197
(dp198
g4
I23444
sg5
I24445
sg6
S'64'
p199
sba(iRequest
Request
p200
(dp201
g4
I18566
sg5
I19567
sg6
S'65'
p202
sba(iRequest
Request
p203
(dp204
g4
I32683
sg5
I33684
sg6
S'66'
p205
sba(iRequest
Request
p206
(dp207
g4
I9710
sg5
I10711
sg6
S'67'
p208
sba(iRequest
Request
p209
(dp210
g4
I14860
sg5
I15861
sg6
S'68'
p211
sba(iRequest
Request
p212
(dp213
g4
I37537
sg5
I38538
sg6
S'69'
p214
sba(iRequest
Request
p215
(dp216
g4
I1702
sg5
I2703
sg6
S'70'
p217
sba(iRequest
Request
p218
(dp219
g4
I42103
sg5
I43104
sg6
S'71'
p220
sba(iRequest
Request
p221
(dp222
g4
I27828
sg5
I28829
sg6
S'72'
p223
sba(iRequest
Request
p224
(dp225
g4
I9338
sg5
I10339
sg6
S'73'
p226
sba(iRequest
Request
p227
(dp228
g4
I23784
sg5
I24785
sg6
S'74'
p229
sba(iRequest
Request
p230
(dp231
g4
I40393
sg5
I41394
sg6
S'75'
p232
sba(iRequest
Request
p233
(dp234
g4
I28437
sg5
I29438
sg6
S'76'
p235
sba(iRequest
Request
p236
(dp237
g4
I21103
sg5
I22104
sg6
S'77'
p238
sba(iRequest
Request
p239
(dp240
g4
I25442
sg5
I26443
sg6
S'78'
p241
sba(iRequest
Request
p242
(dp243
g4
I22818
sg5
I23819
sg6
S'79'
p244
sba(iRequest
Request
p245
(dp246
g4
I39071
sg5
I40072
sg6
S'80'
p247
sba(iRequest
Request
p248
(dp249
g4
I37245
sg5
I38246
sg6
S'81'
p250
sba(iRequest
Request
p251
(dp252
g4
I25211
sg5
I26212
sg6
S'82'
p253
sba(iRequest
Request
p254
(dp255
g4
I38314
sg5
I39315
sg6
S'83'
p256
sba(iRequest
Request
p257
(dp258
g4
I9152
sg5
I10153
sg6
S'84'
p259
sba(iRequest
Request
p260
(dp261
g4
I4580
sg5
I5581
sg6
S'85'
p262
sba(iRequest
Request
p263
(dp264
g4
I23257
sg5
I24258
sg6
S'86'
p265
sba(iRequest
Request
p266
(dp267
g4
I40316
sg5
I41317
sg6
S'87'
p268
sba(iRequest
Request
p269
(dp270
g4
I5428
sg5
I6429
sg6
S'88'
p271
sba(iRequest
Request
p272
(dp273
g4
I37328
sg5
I38329
sg6
S'89'
p274
sba(iRequest
Request
p275
(dp276
g4
I32517
sg5
I33518
sg6
S'90'
p277
sba(iRequest
Request
p278
(dp279
g4
I27948
sg5
I28949
sg6
S'91'
p280
sba(iRequest
Request
p281
(dp282
g4
I10091
sg5
I11092
sg6
S'92'
p283
sba(iRequest
Request
p284
(dp285
g4
I10633
sg5
I11634
sg6
S'93'
p286
sba(iRequest
Request
p287
(dp288
g4
I2895
sg5
I3896
sg6
S'94'
p289
sba(iRequest
Request
p290
(dp291
g4
I10884
sg5
I11885
sg6
S'95'
p292
sba(iRequest
Request
p293
(dp294
g4
I39456
sg5
I40457
sg6
S'96'
p295
sba(iRequest
Request
p296
(dp297
g4
I31651
sg5
I32652
sg6
S'97'
p298
sba(iRequest
Request
p299
(dp300
g4
I38915
sg5
I39916
sg6
S'98'
p301
sba(iRequest
Request
p302
(dp303
g4
I20879
sg5
I21880
sg6
S'99'
p304
sba(iRequest
Request
p305
(dp306
g4
I1069
sg5
I2070
sg6
S'100'
p307
sba(iRequest
Request
p308
(dp309
g4
I29779
sg5
I30780
sg6
S'101'
p310
sba(iRequest
Request
p311
(dp312
g4
I8658
sg5
I9659
sg6
S'102'
p313
sba(iRequest
Request
p314
(dp315
g4
I21047
sg5
I22048
sg6
S'103'
p316
sba(iRequest
Request
p317
(dp318
g4
I6396
sg5
I7397
sg6
S'104'
p319
sba(iRequest
Request
p320
(dp321
g4
I16060
sg5
I17061
sg6
S'105'
p322
sba(iRequest
Request
p323
(dp324
g4
I9913
sg5
I10914
sg6
S'106'
p325
sba(iRequest
Request
p326
(dp327
g4
I25888
sg5
I26889
sg6
S'107'
p328
sba(iRequest
Request
p329
(dp330
g4
I4248
sg5
I5249
sg6
S'108'
p331
sba(iRequest
Request
p332
(dp333
g4
I29524
sg5
I30525
sg6
S'109'
p334
sba(iRequest
Request
p335
(dp336
g4
I13401
sg5
I14402
sg6
S'110'
p337
sba(iRequest
Request
p338
(dp339
g4
I4492
sg5
I5493
sg6
S'111'
p340
sba(iRequest
Request
p341
(dp342
g4
I29883
sg5
I30884
sg6
S'112'
p343
sba(iRequest
Request
p344
(dp345
g4
I23017
sg5
I24018
sg6
S'113'
p346
sba(iRequest
Request
p347
(dp348
g4
I36990
sg5
I37991
sg6
S'114'
p349
sba(iRequest
Request
p350
(dp351
g4
I24528
sg5
I25529
sg6
S'115'
p352
sba(iRequest
Request
p353
(dp354
g4
I7983
sg5
I8984
sg6
S'116'
p355
sba(iRequest
Request
p356
(dp357
g4
I18322
sg5
I19323
sg6
S'117'
p358
sba(iRequest
Request
p359
(dp360
g4
I10101
sg5
I11102
sg6
S'118'
p361
sba(iRequest
Request
p362
(dp363
g4
I26997
sg5
I27998
sg6
S'119'
p364
sba(iRequest
Request
p365
(dp366
g4
I9056
sg5
I10057
sg6
S'120'
p367
sba(iRequest
Request
p368
(dp369
g4
I29741
sg5
I30742
sg6
S'121'
p370
sba(iRequest
Request
p371
(dp372
g4
I16476
sg5
I17477
sg6
S'122'
p373
sba(iRequest
Request
p374
(dp375
g4
I96
sg5
I1097
sg6
S'123'
p376
sba(iRequest
Request
p377
(dp378
g4
I15413
sg5
I16414
sg6
S'124'
p379
sba(iRequest
Request
p380
(dp381
g4
I16302
sg5
I17303
sg6
S'125'
p382
sba(iRequest
Request
p383
(dp384
g4
I37472
sg5
I38473
sg6
S'126'
p385
sba(iRequest
Request
p386
(dp387
g4
I94
sg5
I1095
sg6
S'127'
p388
sba(iRequest
Request
p389
(dp390
g4
I28032
sg5
I29033
sg6
S'128'
p391
sba(iRequest
Request
p392
(dp393
g4
I34997
sg5
I35998
sg6
S'129'
p394
sba(iRequest
Request
p395
(dp396
g4
I13737
sg5
I14738
sg6
S'130'
p397
sba(iRequest
Request
p398
(dp399
g4
I30948
sg5
I31949
sg6
S'131'
p400
sba(iRequest
Request
p401
(dp402
g4
I30311
sg5
I31312
sg6
S'132'
p403
sba(iRequest
Request
p404
(dp405
g4
I38536
sg5
I39537
sg6
S'133'
p406
sba(iRequest
Request
p407
(dp408
g4
I9822
sg5
I10823
sg6
S'134'
p409
sba(iRequest
Request
p410
(dp411
g4
I33853
sg5
I34854
sg6
S'135'
p412
sba(iRequest
Request
p413
(dp414
g4
I37357
sg5
I38358
sg6
S'136'
p415
sba(iRequest
Request
p416
(dp417
g4
I41328
sg5
I42329
sg6
S'137'
p418
sba(iRequest
Request
p419
(dp420
g4
I33024
sg5
I34025
sg6
S'138'
p421
sba(iRequest
Request
p422
(dp423
g4
I5081
sg5
I6082
sg6
S'139'
p424
sba(iRequest
Request
p425
(dp426
g4
I15301
sg5
I16302
sg6
S'140'
p427
sba(iRequest
Request
p428
(dp429
g4
I9097
sg5
I10098
sg6
S'141'
p430
sba(iRequest
Request
p431
(dp432
g4
I23987
sg5
I24988
sg6
S'142'
p433
sba(iRequest
Request
p434
(dp435
g4
I35475
sg5
I36476
sg6
S'143'
p436
sba(iRequest
Request
p437
(dp438
g4
I14567
sg5
I15568
sg6
S'144'
p439
sba(iRequest
Request
p440
(dp441
g4
I33120
sg5
I34121
sg6
S'145'
p442
sba(iRequest
Request
p443
(dp444
g4
I16658
sg5
I17659
sg6
S'146'
p445
sba(iRequest
Request
p446
(dp447
g4
I22587
sg5
I23588
sg6
S'147'
p448
sba(iRequest
Request
p449
(dp450
g4
I5168
sg5
I6169
sg6
S'148'
p451
sba(iRequest
Request
p452
(dp453
g4
I1008
sg5
I2009
sg6
S'149'
p454
sba(iRequest
Request
p455
(dp456
g4
I35927
sg5
I36928
sg6
S'150'
p457
sba(iRequest
Request
p458
(dp459
g4
I24204
sg5
I25205
sg6
S'151'
p460
sba(iRequest
Request
p461
(dp462
g4
I18330
sg5
I19331
sg6
S'152'
p463
sba(iRequest
Request
p464
(dp465
g4
I2345
sg5
I3346
sg6
S'153'
p466
sba(iRequest
Request
p467
(dp468
g4
I21244
sg5
I22245
sg6
S'154'
p469
sba(iRequest
Request
p470
(dp471
g4
I21134
sg5
I22135
sg6
S'155'
p472
sba(iRequest
Request
p473
(dp474
g4
I8264
sg5
I9265
sg6
S'156'
p475
sba(iRequest
Request
p476
(dp477
g4
I6518
sg5
I7519
sg6
S'157'
p478
sba(iRequest
Request
p479
(dp480
g4
I12593
sg5
I13594
sg6
S'158'
p481
sba(iRequest
Request
p482
(dp483
g4
I40700
sg5
I41701
sg6
S'159'
p484
sba(iRequest
Request
p485
(dp486
g4
I23342
sg5
I24343
sg6
S'160'
p487
sba(iRequest
Request
p488
(dp489
g4
I25806
sg5
I26807
sg6
S'161'
p490
sba(iRequest
Request
p491
(dp492
g4
I1385
sg5
I2386
sg6
S'162'
p493
sba(iRequest
Request
p494
(dp495
g4
I41074
sg5
I42075
sg6
S'163'
p496
sba(iRequest
Request
p497
(dp498
g4
I27424
sg5
I28425
sg6
S'164'
p499
sba(iRequest
Request
p500
(dp501
g4
I41101
sg5
I42102
sg6
S'165'
p502
sba(iRequest
Request
p503
(dp504
g4
I41568
sg5
I42569
sg6
S'166'
p505
sba(iRequest
Request
p506
(dp507
g4
I19952
sg5
I20953
sg6
S'167'
p508
sba(iRequest
Request
p509
(dp510
g4
I22533
sg5
I23534
sg6
S'168'
p511
sba(iRequest
Request
p512
(dp513
g4
I19221
sg5
I20222
sg6
S'169'
p514
sba(iRequest
Request
p515
(dp516
g4
I9135
sg5
I10136
sg6
S'170'
p517
sba(iRequest
Request
p518
(dp519
g4
I32323
sg5
I33324
sg6
S'171'
p520
sba(iRequest
Request
p521
(dp522
g4
I13670
sg5
I14671
sg6
S'172'
p523
sba(iRequest
Request
p524
(dp525
g4
I2056
sg5
I3057
sg6
S'173'
p526
sba(iRequest
Request
p527
(dp528
g4
I15409
sg5
I16410
sg6
S'174'
p529
sba(iRequest
Request
p530
(dp531
g4
I21842
sg5
I22843
sg6
S'175'
p532
sba(iRequest
Request
p533
(dp534
g4
I32611
sg5
I33612
sg6
S'176'
p535
sba(iRequest
Request
p536
(dp537
g4
I6112
sg5
I7113
sg6
S'177'
p538
sba(iRequest
Request
p539
(dp540
g4
I24915
sg5
I25916
sg6
S'178'
p541
sba(iRequest
Request
p542
(dp543
g4
I24906
sg5
I25907
sg6
S'179'
p544
sba(iRequest
Request
p545
(dp546
g4
I5717
sg5
I6718
sg6
S'180'
p547
sba(iRequest
Request
p548
(dp549
g4
I31640
sg5
I32641
sg6
S'181'
p550
sba(iRequest
Request
p551
(dp552
g4
I16854
sg5
I17855
sg6
S'182'
p553
sba(iRequest
Request
p554
(dp555
g4
I14372
sg5
I15373
sg6
S'183'
p556
sba(iRequest
Request
p557
(dp558
g4
I14644
sg5
I15645
sg6
S'184'
p559
sba(iRequest
Request
p560
(dp561
g4
I26807
sg5
I27808
sg6
S'185'
p562
sba(iRequest
Request
p563
(dp564
g4
I18763
sg5
I19764
sg6
S'186'
p565
sba(iRequest
Request
p566
(dp567
g4
I20955
sg5
I21956
sg6
S'187'
p568
sba(iRequest
Request
p569
(dp570
g4
I7536
sg5
I8537
sg6
S'188'
p571
sba(iRequest
Request
p572
(dp573
g4
I3437
sg5
I4438
sg6
S'189'
p574
sba(iRequest
Request
p575
(dp576
g4
I9355
sg5
I10356
sg6
S'190'
p577
sba(iRequest
Request
p578
(dp579
g4
I42131
sg5
I43132
sg6
S'191'
p580
sba(iRequest
Request
p581
(dp582
g4
I12077
sg5
I13078
sg6
S'192'
p583
sba(iRequest
Request
p584
(dp585
g4
I22609
sg5
I23610
sg6
S'193'
p586
sba(iRequest
Request
p587
(dp588
g4
I30193
sg5
I31194
sg6
S'194'
p589
sba(iRequest
Request
p590
(dp591
g4
I40943
sg5
I41944
sg6
S'195'
p592
sba(iRequest
Request
p593
(dp594
g4
I23611
sg5
I24612
sg6
S'196'
p595
sba(iRequest
Request
p596
(dp597
g4
I6706
sg5
I7707
sg6
S'197'
p598
sba(iRequest
Request
p599
(dp600
g4
I38096
sg5
I39097
sg6
S'198'
p601
sba(iRequest
Request
p602
(dp603
g4
I9479
sg5
I10480
sg6
S'199'
p604
sba(iRequest
Request
p605
(dp606
g4
I171
sg5
I1172
sg6
S'200'
p607
sba(iRequest
Request
p608
(dp609
g4
I17074
sg5
I18075
sg6
S'201'
p610
sba(iRequest
Request
p611
(dp612
g4
I35452
sg5
I36453
sg6
S'202'
p613
sba(iRequest
Request
p614
(dp615
g4
I39909
sg5
I40910
sg6
S'203'
p616
sba(iRequest
Request
p617
(dp618
g4
I3589
sg5
I4590
sg6
S'204'
p619
sba(iRequest
Request
p620
(dp621
g4
I7849
sg5
I8850
sg6
S'205'
p622
sba(iRequest
Request
p623
(dp624
g4
I1275
sg5
I2276
sg6
S'206'
p625
sba(iRequest
Request
p626
(dp627
g4
I41288
sg5
I42289
sg6
S'207'
p628
sba(iRequest
Request
p629
(dp630
g4
I25142
sg5
I26143
sg6
S'208'
p631
sba(iRequest
Request
p632
(dp633
g4
I15249
sg5
I16250
sg6
S'209'
p634
sba(iRequest
Request
p635
(dp636
g4
I23316
sg5
I24317
sg6
S'210'
p637
sba(iRequest
Request
p638
(dp639
g4
I35044
sg5
I36045
sg6
S'211'
p640
sba(iRequest
Request
p641
(dp642
g4
I22984
sg5
I23985
sg6
S'212'
p643
sba(iRequest
Request
p644
(dp645
g4
I40365
sg5
I41366
sg6
S'213'
p646
sba(iRequest
Request
p647
(dp648
g4
I39485
sg5
I40486
sg6
S'214'
p649
sba(iRequest
Request
p650
(dp651
g4
I22453
sg5
I23454
sg6
S'215'
p652
sba(iRequest
Request
p653
(dp654
g4
I11850
sg5
I12851
sg6
S'216'
p655
sba(iRequest
Request
p656
(dp657
g4
I39242
sg5
I40243
sg6
S'217'
p658
sba(iRequest
Request
p659
(dp660
g4
I36466
sg5
I37467
sg6
S'218'
p661
sba(iRequest
Request
p662
(dp663
g4
I26881
sg5
I27882
sg6
S'219'
p664
sba(iRequest
Request
p665
(dp666
g4
I39245
sg5
I40246
sg6
S'220'
p667
sba(iRequest
Request
p668
(dp669
g4
I31027
sg5
I32028
sg6
S'221'
p670
sba(iRequest
Request
p671
(dp672
g4
I26832
sg5
I27833
sg6
S'222'
p673
sba(iRequest
Request
p674
(dp675
g4
I10478
sg5
I11479
sg6
S'223'
p676
sba(iRequest
Request
p677
(dp678
g4
I16442
sg5
I17443
sg6
S'224'
p679
sba(iRequest
Request
p680
(dp681
g4
I27231
sg5
I28232
sg6
S'225'
p682
sba(iRequest
Request
p683
(dp684
g4
I18803
sg5
I19804
sg6
S'226'
p685
sba(iRequest
Request
p686
(dp687
g4
I997
sg5
I1998
sg6
S'227'
p688
sba(iRequest
Request
p689
(dp690
g4
I14007
sg5
I15008
sg6
S'228'
p691
sba(iRequest
Request
p692
(dp693
g4
I8062
sg5
I9063
sg6
S'229'
p694
sba(iRequest
Request
p695
(dp696
g4
I8127
sg5
I9128
sg6
S'230'
p697
sba(iRequest
Request
p698
(dp699
g4
I2923
sg5
I3924
sg6
S'231'
p700
sba(iRequest
Request
p701
(dp702
g4
I35916
sg5
I36917
sg6
S'232'
p703
sba(iRequest
Request
p704
(dp705
g4
I32358
sg5
I33359
sg6
S'233'
p706
sba(iRequest
Request
p707
(dp708
g4
I2296
sg5
I3297
sg6
S'234'
p709
sba(iRequest
Request
p710
(dp711
g4
I35788
sg5
I36789
sg6
S'235'
p712
sba(iRequest
Request
p713
(dp714
g4
I16723
sg5
I17724
sg6
S'236'
p715
sba(iRequest
Request
p716
(dp717
g4
I21360
sg5
I22361
sg6
S'237'
p718
sba(iRequest
Request
p719
(dp720
g4
I39562
sg5
I40563
sg6
S'238'
p721
sba(iRequest
Request
p722
(dp723
g4
I26726
sg5
I27727
sg6
S'239'
p724
sba(iRequest
Request
p725
(dp726
g4
I5961
sg5
I6962
sg6
S'240'
p727
sba(iRequest
Request
p728
(dp729
g4
I5699
sg5
I6700
sg6
S'241'
p730
sba(iRequest
Request
p731
(dp732
g4
I556
sg5
I1557
sg6
S'242'
p733
sba(iRequest
Request
p734
(dp735
g4
I21537
sg5
I22538
sg6
S'243'
p736
sba(iRequest
Request
p737
(dp738
g4
I35330
sg5
I36331
sg6
S'244'
p739
sba(iRequest
Request
p740
(dp741
g4
I17545
sg5
I18546
sg6
S'245'
p742
sba(iRequest
Request
p743
(dp744
g4
I19351
sg5
I20352
sg6
S'246'
p745
sba(iRequest
Request
p746
(dp747
g4
I2743
sg5
I3744
sg6
S'247'
p748
sba(iRequest
Request
p749
(dp750
g4
I14375
sg5
I15376
sg6
S'248'
p751
sba(iRequest
Request
p752
(dp753
g4
I6616
sg5
I7617
sg6
S'249'
p754
sba(iRequest
Request
p755
(dp756
g4
I5205
sg5
I6206
sg6
S'250'
p757
sba(iRequest
Request
p758
(dp759
g4
I31359
sg5
I32360
sg6
S'251'
p760
sba(iRequest
Request
p761
(dp762
g4
I26222
sg5
I27223
sg6
S'252'
p763
sba(iRequest
Request
p764
(dp765
g4
I25235
sg5
I26236
sg6
S'253'
p766
sba(iRequest
Request
p767
(dp768
g4
I24031
sg5
I25032
sg6
S'254'
p769
sba(iRequest
Request
p770
(dp771
g4
I6887
sg5
I7888
sg6
S'255'
p772
sba(iRequest
Request
p773
(dp774
g4
I2697
sg5
I3698
sg6
S'256'
p775
sba(iRequest
Request
p776
(dp777
g4
I24369
sg5
I25370
sg6
S'257'
p778
sba(iRequest
Request
p779
(dp780
g4
I12045
sg5
I13046
sg6
S'258'
p781
sba(iRequest
Request
p782
(dp783
g4
I38650
sg5
I39651
sg6
S'259'
p784
sba(iRequest
Request
p785
(dp786
g4
I39776
sg5
I40777
sg6
S'260'
p787
sba(iRequest
Request
p788
(dp789
g4
I10052
sg5
I11053
sg6
S'261'
p790
sba(iRequest
Request
p791
(dp792
g4
I34435
sg5
I35436
sg6
S'262'
p793
sba(iRequest
Request
p794
(dp795
g4
I36309
sg5
I37310
sg6
S'263'
p796
sba(iRequest
Request
p797
(dp798
g4
I22988
sg5
I23989
sg6
S'264'
p799
sba(iRequest
Request
p800
(dp801
g4
I36474
sg5
I37475
sg6
S'265'
p802
sba(iRequest
Request
p803
(dp804
g4
I32108
sg5
I33109
sg6
S'266'
p805
sba(iRequest
Request
p806
(dp807
g4
I3563
sg5
I4564
sg6
S'267'
p808
sba(iRequest
Request
p809
(dp810
g4
I14889
sg5
I15890
sg6
S'268'
p811
sba(iRequest
Request
p812
(dp813
g4
I36944
sg5
I37945
sg6
S'269'
p814
sba(iRequest
Request
p815
(dp816
g4
I9810
sg5
I10811
sg6
S'270'
p817
sba(iRequest
Request
p818
(dp819
g4
I32071
sg5
I33072
sg6
S'271'
p820
sba(iRequest
Request
p821
(dp822
g4
I5160
sg5
I6161
sg6
S'272'
p823
sba(iRequest
Request
p824
(dp825
g4
I15793
sg5
I16794
sg6
S'273'
p826
sba(iRequest
Request
p827
(dp828
g4
I15048
sg5
I16049
sg6
S'274'
p829
sba(iRequest
Request
p830
(dp831
g4
I37566
sg5
I38567
sg6
S'275'
p832
sba(iRequest
Request
p833
(dp834
g4
I30764
sg5
I31765
sg6
S'276'
p835
sba(iRequest
Request
p836
(dp837
g4
I15459
sg5
I16460
sg6
S'277'
p838
sba(iRequest
Request
p839
(dp840
g4
I30057
sg5
I31058
sg6
S'278'
p841
sba(iRequest
Request
p842
(dp843
g4
I6526
sg5
I7527
sg6
S'279'
p844
sba(iRequest
Request
p845
(dp846
g4
I37850
sg5
I38851
sg6
S'280'
p847
sba(iRequest
Request
p848
(dp849
g4
I31905
sg5
I32906
sg6
S'281'
p850
sba(iRequest
Request
p851
(dp852
g4
I22979
sg5
I23980
sg6
S'282'
p853
sba(iRequest
Request
p854
(dp855
g4
I14447
sg5
I15448
sg6
S'283'
p856
sba(iRequest
Request
p857
(dp858
g4
I30934
sg5
I31935
sg6
S'284'
p859
sba(iRequest
Request
p860
(dp861
g4
I26090
sg5
I27091
sg6
S'285'
p862
sba(iRequest
Request
p863
(dp864
g4
I34675
sg5
I35676
sg6
S'286'
p865
sba(iRequest
Request
p866
(dp867
g4
I7390
sg5
I8391
sg6
S'287'
p868
sba(iRequest
Request
p869
(dp870
g4
I39540
sg5
I40541
sg6
S'288'
p871
sba(iRequest
Request
p872
(dp873
g4
I41853
sg5
I42854
sg6
S'289'
p874
sba(iRequest
Request
p875
(dp876
g4
I16486
sg5
I17487
sg6
S'290'
p877
sba(iRequest
Request
p878
(dp879
g4
I19552
sg5
I20553
sg6
S'291'
p880
sba(iRequest
Request
p881
(dp882
g4
I4905
sg5
I5906
sg6
S'292'
p883
sba(iRequest
Request
p884
(dp885
g4
I14623
sg5
I15624
sg6
S'293'
p886
sba(iRequest
Request
p887
(dp888
g4
I1467
sg5
I2468
sg6
S'294'
p889
sba(iRequest
Request
p890
(dp891
g4
I14263
sg5
I15264
sg6
S'295'
p892
sba(iRequest
Request
p893
(dp894
g4
I5147
sg5
I6148
sg6
S'296'
p895
sba(iRequest
Request
p896
(dp897
g4
I12644
sg5
I13645
sg6
S'297'
p898
sba(iRequest
Request
p899
(dp900
g4
I29876
sg5
I30877
sg6
S'298'
p901
sba(iRequest
Request
p902
(dp903
g4
I26343
sg5
I27344
sg6
S'299'
p904
sba(iRequest
Request
p905
(dp906
g4
I13987
sg5
I14988
sg6
S'300'
p907
sba(iRequest
Request
p908
(dp909
g4
I24694
sg5
I25695
sg6
S'301'
p910
sba(iRequest
Request
p911
(dp912
g4
I13971
sg5
I14972
sg6
S'302'
p913
sba(iRequest
Request
p914
(dp915
g4
I1087
sg5
I2088
sg6
S'303'
p916
sba(iRequest
Request
p917
(dp918
g4
I4270
sg5
I5271
sg6
S'304'
p919
sba(iRequest
Request
p920
(dp921
g4
I1381
sg5
I2382
sg6
S'305'
p922
sba(iRequest
Request
p923
(dp924
g4
I14381
sg5
I15382
sg6
S'306'
p925
sba(iRequest
Request
p926
(dp927
g4
I13069
sg5
I14070
sg6
S'307'
p928
sba(iRequest
Request
p929
(dp930
g4
I30782
sg5
I31783
sg6
S'308'
p931
sba(iRequest
Request
p932
(dp933
g4
I12162
sg5
I13163
sg6
S'309'
p934
sba(iRequest
Request
p935
(dp936
g4
I3295
sg5
I4296
sg6
S'310'
p937
sba(iRequest
Request
p938
(dp939
g4
I14845
sg5
I15846
sg6
S'311'
p940
sba(iRequest
Request
p941
(dp942
g4
I14968
sg5
I15969
sg6
S'312'
p943
sba(iRequest
Request
p944
(dp945
g4
I20654
sg5
I21655
sg6
S'313'
p946
sba(iRequest
Request
p947
(dp948
g4
I6848
sg5
I7849
sg6
S'314'
p949
sba(iRequest
Request
p950
(dp951
g4
I8003
sg5
I9004
sg6
S'315'
p952
sba(iRequest
Request
p953
(dp954
g4
I19711
sg5
I20712
sg6
S'316'
p955
sba(iRequest
Request
p956
(dp957
g4
I36131
sg5
I37132
sg6
S'317'
p958
sba(iRequest
Request
p959
(dp960
g4
I26811
sg5
I27812
sg6
S'318'
p961
sba(iRequest
Request
p962
(dp963
g4
I12818
sg5
I13819
sg6
S'319'
p964
sba(iRequest
Request
p965
(dp966
g4
I24818
sg5
I25819
sg6
S'320'
p967
sba(iRequest
Request
p968
(dp969
g4
I1614
sg5
I2615
sg6
S'321'
p970
sba(iRequest
Request
p971
(dp972
g4
I38362
sg5
I39363
sg6
S'322'
p973
sba(iRequest
Request
p974
(dp975
g4
I12159
sg5
I13160
sg6
S'323'
p976
sba(iRequest
Request
p977
(dp978
g4
I14762
sg5
I15763
sg6
S'324'
p979
sba(iRequest
Request
p980
(dp981
g4
I9382
sg5
I10383
sg6
S'325'
p982
sba(iRequest
Request
p983
(dp984
g4
I22066
sg5
I23067
sg6
S'326'
p985
sba(iRequest
Request
p986
(dp987
g4
I35854
sg5
I36855
sg6
S'327'
p988
sba(iRequest
Request
p989
(dp990
g4
I16717
sg5
I17718
sg6
S'328'
p991
sba(iRequest
Request
p992
(dp993
g4
I26159
sg5
I27160
sg6
S'329'
p994
sba(iRequest
Request
p995
(dp996
g4
I2539
sg5
I3540
sg6
S'330'
p997
sba(iRequest
Request
p998
(dp999
g4
I35086
sg5
I36087
sg6
S'331'
p1000
sba(iRequest
Request
p1001
(dp1002
g4
I41854
sg5
I42855
sg6
S'332'
p1003
sba(iRequest
Request
p1004
(dp1005
g4
I19694
sg5
I20695
sg6
S'333'
p1006
sba(iRequest
Request
p1007
(dp1008
g4
I11072
sg5
I12073
sg6
S'334'
p1009
sba(iRequest
Request
p1010
(dp1011
g4
I29040
sg5
I30041
sg6
S'335'
p1012
sba(iRequest
Request
p1013
(dp1014
g4
I10928
sg5
I11929
sg6
S'336'
p1015
sba(iRequest
Request
p1016
(dp1017
g4
I39155
sg5
I40156
sg6
S'337'
p1018
sba(iRequest
Request
p1019
(dp1020
g4
I32238
sg5
I33239
sg6
S'338'
p1021
sba(iRequest
Request
p1022
(dp1023
g4
I25584
sg5
I26585
sg6
S'339'
p1024
sba(iRequest
Request
p1025
(dp1026
g4
I4540
sg5
I5541
sg6
S'340'
p1027
sba(iRequest
Request
p1028
(dp1029
g4
I24556
sg5
I25557
sg6
S'341'
p1030
sba(iRequest
Request
p1031
(dp1032
g4
I31620
sg5
I32621
sg6
S'342'
p1033
sba(iRequest
Request
p1034
(dp1035
g4
I40108
sg5
I41109
sg6
S'343'
p1036
sba(iRequest
Request
p1037
(dp1038
g4
I15829
sg5
I16830
sg6
S'344'
p1039
sba(iRequest
Request
p1040
(dp1041
g4
I29140
sg5
I30141
sg6
S'345'
p1042
sba(iRequest
Request
p1043
(dp1044
g4
I21686
sg5
I22687
sg6
S'346'
p1045
sba(iRequest
Request
p1046
(dp1047
g4
I9360
sg5
I10361
sg6
S'347'
p1048
sba(iRequest
Request
p1049
(dp1050
g4
I8133
sg5
I9134
sg6
S'348'
p1051
sba(iRequest
Request
p1052
(dp1053
g4
I8019
sg5
I9020
sg6
S'349'
p1054
sba(iRequest
Request
p1055
(dp1056
g4
I22261
sg5
I23262
sg6
S'350'
p1057
sba(iRequest
Request
p1058
(dp1059
g4
I34561
sg5
I35562
sg6
S'351'
p1060
sba(iRequest
Request
p1061
(dp1062
g4
I20765
sg5
I21766
sg6
S'352'
p1063
sba(iRequest
Request
p1064
(dp1065
g4
I18205
sg5
I19206
sg6
S'353'
p1066
sba(iRequest
Request
p1067
(dp1068
g4
I30869
sg5
I31870
sg6
S'354'
p1069
sba(iRequest
Request
p1070
(dp1071
g4
I35597
sg5
I36598
sg6
S'355'
p1072
sba(iRequest
Request
p1073
(dp1074
g4
I35180
sg5
I36181
sg6
S'356'
p1075
sba(iRequest
Request
p1076
(dp1077
g4
I10947
sg5
I11948
sg6
S'357'
p1078
sba(iRequest
Request
p1079
(dp1080
g4
I7970
sg5
I8971
sg6
S'358'
p1081
sba(iRequest
Request
p1082
(dp1083
g4
I34158
sg5
I35159
sg6
S'359'
p1084
sba(iRequest
Request
p1085
(dp1086
g4
I11639
sg5
I12640
sg6
S'360'
p1087
sba(iRequest
Request
p1088
(dp1089
g4
I34497
sg5
I35498
sg6
S'361'
p1090
sba(iRequest
Request
p1091
(dp1092
g4
I13853
sg5
I14854
sg6
S'362'
p1093
sba(iRequest
Request
p1094
(dp1095
g4
I12642
sg5
I13643
sg6
S'363'
p1096
sba(iRequest
Request
p1097
(dp1098
g4
I8456
sg5
I9457
sg6
S'364'
p1099
sba(iRequest
Request
p1100
(dp1101
g4
I6001
sg5
I7002
sg6
S'365'
p1102
sba(iRequest
Request
p1103
(dp1104
g4
I22140
sg5
I23141
sg6
S'366'
p1105
sba(iRequest
Request
p1106
(dp1107
g4
I38888
sg5
I39889
sg6
S'367'
p1108
sba(iRequest
Request
p1109
(dp1110
g4
I28322
sg5
I29323
sg6
S'368'
p1111
sba(iRequest
Request
p1112
(dp1113
g4
I23257
sg5
I24258
sg6
S'369'
p1114
sba(iRequest
Request
p1115
(dp1116
g4
I31519
sg5
I32520
sg6
S'370'
p1117
sba(iRequest
Request
p1118
(dp1119
g4
I41572
sg5
I42573
sg6
S'371'
p1120
sba(iRequest
Request
p1121
(dp1122
g4
I10793
sg5
I11794
sg6
S'372'
p1123
sba(iRequest
Request
p1124
(dp1125
g4
I23515
sg5
I24516
sg6
S'373'
p1126
sba(iRequest
Request
p1127
(dp1128
g4
I9463
sg5
I10464
sg6
S'374'
p1129
sba(iRequest
Request
p1130
(dp1131
g4
I10003
sg5
I11004
sg6
S'375'
p1132
sba(iRequest
Request
p1133
(dp1134
g4
I15302
sg5
I16303
sg6
S'376'
p1135
sba(iRequest
Request
p1136
(dp1137
g4
I32560
sg5
I33561
sg6
S'377'
p1138
sba(iRequest
Request
p1139
(dp1140
g4
I27502
sg5
I28503
sg6
S'378'
p1141
sba(iRequest
Request
p1142
(dp1143
g4
I8474
sg5
I9475
sg6
S'379'
p1144
sba(iRequest
Request
p1145
(dp1146
g4
I32794
sg5
I33795
sg6
S'380'
p1147
sba(iRequest
Request
p1148
(dp1149
g4
I40293
sg5
I41294
sg6
S'381'
p1150
sba(iRequest
Request
p1151
(dp1152
g4
I38321
sg5
I39322
sg6
S'382'
p1153
sba(iRequest
Request
p1154
(dp1155
g4
I16719
sg5
I17720
sg6
S'383'
p1156
sba(iRequest
Request
p1157
(dp1158
g4
I39474
sg5
I40475
sg6
S'384'
p1159
sba(iRequest
Request
p1160
(dp1161
g4
I1570
sg5
I2571
sg6
S'385'
p1162
sba(iRequest
Request
p1163
(dp1164
g4
I12925
sg5
I13926
sg6
S'386'
p1165
sba(iRequest
Request
p1166
(dp1167
g4
I23384
sg5
I24385
sg6
S'387'
p1168
sba(iRequest
Request
p1169
(dp1170
g4
I406
sg5
I1407
sg6
S'388'
p1171
sba(iRequest
Request
p1172
(dp1173
g4
I2521
sg5
I3522
sg6
S'389'
p1174
sba(iRequest
Request
p1175
(dp1176
g4
I21369
sg5
I22370
sg6
S'390'
p1177
sba(iRequest
Request
p1178
(dp1179
g4
I14982
sg5
I15983
sg6
S'391'
p1180
sba(iRequest
Request
p1181
(dp1182
g4
I23048
sg5
I24049
sg6
S'392'
p1183
sba(iRequest
Request
p1184
(dp1185
g4
I34519
sg5
I35520
sg6
S'393'
p1186
sba(iRequest
Request
p1187
(dp1188
g4
I15516
sg5
I16517
sg6
S'394'
p1189
sba(iRequest
Request
p1190
(dp1191
g4
I23999
sg5
I25000
sg6
S'395'
p1192
sba(iRequest
Request
p1193
(dp1194
g4
I28940
sg5
I29941
sg6
S'396'
p1195
sba(iRequest
Request
p1196
(dp1197
g4
I12853
sg5
I13854
sg6
S'397'
p1198
sba(iRequest
Request
p1199
(dp1200
g4
I685
sg5
I1686
sg6
S'398'
p1201
sba(iRequest
Request
p1202
(dp1203
g4
I3062
sg5
I4063
sg6
S'399'
p1204
sba(iRequest
Request
p1205
(dp1206
g4
I20131
sg5
I21132
sg6
S'400'
p1207
sba(iRequest
Request
p1208
(dp1209
g4
I17813
sg5
I18814
sg6
S'401'
p1210
sba(iRequest
Request
p1211
(dp1212
g4
I917
sg5
I1918
sg6
S'402'
p1213
sba(iRequest
Request
p1214
(dp1215
g4
I8677
sg5
I9678
sg6
S'403'
p1216
sba(iRequest
Request
p1217
(dp1218
g4
I42069
sg5
I43070
sg6
S'404'
p1219
sba(iRequest
Request
p1220
(dp1221
g4
I38949
sg5
I39950
sg6
S'405'
p1222
sba(iRequest
Request
p1223
(dp1224
g4
I40488
sg5
I41489
sg6
S'406'
p1225
sba(iRequest
Request
p1226
(dp1227
g4
I4919
sg5
I5920
sg6
S'407'
p1228
sba(iRequest
Request
p1229
(dp1230
g4
I35970
sg5
I36971
sg6
S'408'
p1231
sba(iRequest
Request
p1232
(dp1233
g4
I12153
sg5
I13154
sg6
S'409'
p1234
sba(iRequest
Request
p1235
(dp1236
g4
I15165
sg5
I16166
sg6
S'410'
p1237
sba(iRequest
Request
p1238
(dp1239
g4
I6907
sg5
I7908
sg6
S'411'
p1240
sba(iRequest
Request
p1241
(dp1242
g4
I40739
sg5
I41740
sg6
S'412'
p1243
sba(iRequest
Request
p1244
(dp1245
g4
I14162
sg5
I15163
sg6
S'413'
p1246
sba(iRequest
Request
p1247
(dp1248
g4
I15606
sg5
I16607
sg6
S'414'
p1249
sba(iRequest
Request
p1250
(dp1251
g4
I30998
sg5
I31999
sg6
S'415'
p1252
sba(iRequest
Request
p1253
(dp1254
g4
I26850
sg5
I27851
sg6
S'416'
p1255
sba(iRequest
Request
p1256
(dp1257
g4
I4375
sg5
I5376
sg6
S'417'
p1258
sba(iRequest
Request
p1259
(dp1260
g4
I31431
sg5
I32432
sg6
S'418'
p1261
sba(iRequest
Request
p1262
(dp1263
g4
I1760
sg5
I2761
sg6
S'419'
p1264
sba(iRequest
Request
p1265
(dp1266
g4
I37203
sg5
I38204
sg6
S'420'
p1267
sba(iRequest
Request
p1268
(dp1269
g4
I39114
sg5
I40115
sg6
S'421'
p1270
sba(iRequest
Request
p1271
(dp1272
g4
I8454
sg5
I9455
sg6
S'422'
p1273
sba(iRequest
Request
p1274
(dp1275
g4
I17258
sg5
I18259
sg6
S'423'
p1276
sba(iRequest
Request
p1277
(dp1278
g4
I38319
sg5
I39320
sg6
S'424'
p1279
sba(iRequest
Request
p1280
(dp1281
g4
I3764
sg5
I4765
sg6
S'425'
p1282
sba(iRequest
Request
p1283
(dp1284
g4
I6208
sg5
I7209
sg6
S'426'
p1285
sba(iRequest
Request
p1286
(dp1287
g4
I34808
sg5
I35809
sg6
S'427'
p1288
sba(iRequest
Request
p1289
(dp1290
g4
I25977
sg5
I26978
sg6
S'428'
p1291
sba(iRequest
Request
p1292
(dp1293
g4
I33770
sg5
I34771
sg6
S'429'
p1294
sba(iRequest
Request
p1295
(dp1296
g4
I24568
sg5
I25569
sg6
S'430'
p1297
sba(iRequest
Request
p1298
(dp1299
g4
I13631
sg5
I14632
sg6
S'431'
p1300
sba(iRequest
Request
p1301
(dp1302
g4
I34312
sg5
I35313
sg6
S'432'
p1303
sba(iRequest
Request
p1304
(dp1305
g4
I37926
sg5
I38927
sg6
S'433'
p1306
sba(iRequest
Request
p1307
(dp1308
g4
I37758
sg5
I38759
sg6
S'434'
p1309
sba(iRequest
Request
p1310
(dp1311
g4
I41200
sg5
I42201
sg6
S'435'
p1312
sba(iRequest
Request
p1313
(dp1314
g4
I19671
sg5
I20672
sg6
S'436'
p1315
sba(iRequest
Request
p1316
(dp1317
g4
I27316
sg5
I28317
sg6
S'437'
p1318
sba(iRequest
Request
p1319
(dp1320
g4
I10784
sg5
I11785
sg6
S'438'
p1321
sba(iRequest
Request
p1322
(dp1323
g4
I2419
sg5
I3420
sg6
S'439'
p1324
sba(iRequest
Request
p1325
(dp1326
g4
I8648
sg5
I9649
sg6
S'440'
p1327
sba(iRequest
Request
p1328
(dp1329
g4
I5722
sg5
I6723
sg6
S'441'
p1330
sba(iRequest
Request
p1331
(dp1332
g4
I15112
sg5
I16113
sg6
S'442'
p1333
sba(iRequest
Request
p1334
(dp1335
g4
I24720
sg5
I25721
sg6
S'443'
p1336
sba(iRequest
Request
p1337
(dp1338
g4
I26261
sg5
I27262
sg6
S'444'
p1339
sba(iRequest
Request
p1340
(dp1341
g4
I30080
sg5
I31081
sg6
S'445'
p1342
sba(iRequest
Request
p1343
(dp1344
g4
I36319
sg5
I37320
sg6
S'446'
p1345
sba(iRequest
Request
p1346
(dp1347
g4
I31078
sg5
I32079
sg6
S'447'
p1348
sba(iRequest
Request
p1349
(dp1350
g4
I766
sg5
I1767
sg6
S'448'
p1351
sba(iRequest
Request
p1352
(dp1353
g4
I13534
sg5
I14535
sg6
S'449'
p1354
sba(iRequest
Request
p1355
(dp1356
g4
I34675
sg5
I35676
sg6
S'450'
p1357
sba(iRequest
Request
p1358
(dp1359
g4
I24046
sg5
I25047
sg6
S'451'
p1360
sba(iRequest
Request
p1361
(dp1362
g4
I5255
sg5
I6256
sg6
S'452'
p1363
sba(iRequest
Request
p1364
(dp1365
g4
I37191
sg5
I38192
sg6
S'453'
p1366
sba(iRequest
Request
p1367
(dp1368
g4
I27727
sg5
I28728
sg6
S'454'
p1369
sba(iRequest
Request
p1370
(dp1371
g4
I37151
sg5
I38152
sg6
S'455'
p1372
sba(iRequest
Request
p1373
(dp1374
g4
I41322
sg5
I42323
sg6
S'456'
p1375
sba(iRequest
Request
p1376
(dp1377
g4
I19473
sg5
I20474
sg6
S'457'
p1378
sba(iRequest
Request
p1379
(dp1380
g4
I27061
sg5
I28062
sg6
S'458'
p1381
sba(iRequest
Request
p1382
(dp1383
g4
I5941
sg5
I6942
sg6
S'459'
p1384
sba(iRequest
Request
p1385
(dp1386
g4
I4522
sg5
I5523
sg6
S'460'
p1387
sba(iRequest
Request
p1388
(dp1389
g4
I22285
sg5
I23286
sg6
S'461'
p1390
sba(iRequest
Request
p1391
(dp1392
g4
I39099
sg5
I40100
sg6
S'462'
p1393
sba(iRequest
Request
p1394
(dp1395
g4
I30891
sg5
I31892
sg6
S'463'
p1396
sba(iRequest
Request
p1397
(dp1398
g4
I14162
sg5
I15163
sg6
S'464'
p1399
sba(iRequest
Request
p1400
(dp1401
g4
I33955
sg5
I34956
sg6
S'465'
p1402
sba(iRequest
Request
p1403
(dp1404
g4
I12971
sg5
I13972
sg6
S'466'
p1405
sba(iRequest
Request
p1406
(dp1407
g4
I18500
sg5
I19501
sg6
S'467'
p1408
sba(iRequest
Request
p1409
(dp1410
g4
I26429
sg5
I27430
sg6
S'468'
p1411
sba(iRequest
Request
p1412
(dp1413
g4
I11495
sg5
I12496
sg6
S'469'
p1414
sba(iRequest
Request
p1415
(dp1416
g4
I31354
sg5
I32355
sg6
S'470'
p1417
sba(iRequest
Request
p1418
(dp1419
g4
I30058
sg5
I31059
sg6
S'471'
p1420
sba(iRequest
Request
p1421
(dp1422
g4
I10324
sg5
I11325
sg6
S'472'
p1423
sba(iRequest
Request
p1424
(dp1425
g4
I3308
sg5
I4309
sg6
S'473'
p1426
sba(iRequest
Request
p1427
(dp1428
g4
I41631
sg5
I42632
sg6
S'474'
p1429
sba(iRequest
Request
p1430
(dp1431
g4
I21509
sg5
I22510
sg6
S'475'
p1432
sba(iRequest
Request
p1433
(dp1434
g4
I28272
sg5
I29273
sg6
S'476'
p1435
sba(iRequest
Request
p1436
(dp1437
g4
I35613
sg5
I36614
sg6
S'477'
p1438
sba(iRequest
Request
p1439
(dp1440
g4
I34589
sg5
I35590
sg6
S'478'
p1441
sba(iRequest
Request
p1442
(dp1443
g4
I3693
sg5
I4694
sg6
S'479'
p1444
sba(iRequest
Request
p1445
(dp1446
g4
I41275
sg5
I42276
sg6
S'480'
p1447
sba(iRequest
Request
p1448
(dp1449
g4
I19379
sg5
I20380
sg6
S'481'
p1450
sba(iRequest
Request
p1451
(dp1452
g4
I38545
sg5
I39546
sg6
S'482'
p1453
sba(iRequest
Request
p1454
(dp1455
g4
I14881
sg5
I15882
sg6
S'483'
p1456
sba(iRequest
Request
p1457
(dp1458
g4
I11803
sg5
I12804
sg6
S'484'
p1459
sba(iRequest
Request
p1460
(dp1461
g4
I8793
sg5
I9794
sg6
S'485'
p1462
sba(iRequest
Request
p1463
(dp1464
g4
I25350
sg5
I26351
sg6
S'486'
p1465
sba(iRequest
Request
p1466
(dp1467
g4
I9661
sg5
I10662
sg6
S'487'
p1468
sba(iRequest
Request
p1469
(dp1470
g4
I22926
sg5
I23927
sg6
S'488'
p1471
sba(iRequest
Request
p1472
(dp1473
g4
I30954
sg5
I31955
sg6
S'489'
p1474
sba(iRequest
Request
p1475
(dp1476
g4
I13695
sg5
I14696
sg6
S'490'
p1477
sba(iRequest
Request
p1478
(dp1479
g4
I35214
sg5
I36215
sg6
S'491'
p1480
sba(iRequest
Request
p1481
(dp1482
g4
I10381
sg5
I11382
sg6
S'492'
p1483
sba(iRequest
Request
p1484
(dp1485
g4
I7589
sg5
I8590
sg6
S'493'
p1486
sba(iRequest
Request
p1487
(dp1488
g4
I19429
sg5
I20430
sg6
S'494'
p1489
sba(iRequest
Request
p1490
(dp1491
g4
I1505
sg5
I2506
sg6
S'495'
p1492
sba(iRequest
Request
p1493
(dp1494
g4
I15628
sg5
I16629
sg6
S'496'
p1495
sba(iRequest
Request
p1496
(dp1497
g4
I5585
sg5
I6586
sg6
S'497'
p1498
sba(iRequest
Request
p1499
(dp1500
g4
I35941
sg5
I36942
sg6
S'498'
p1501
sba(iRequest
Request
p1502
(dp1503
g4
I40183
sg5
I41184
sg6
S'499'
p1504
sba(iRequest
Request
p1505
(dp1506
g4
I36526
sg5
I37527
sg6
S'500'
p1507
sba(iRequest
Request
p1508
(dp1509
g4
I725
sg5
I1726
sg6
S'501'
p1510
sba(iRequest
Request
p1511
(dp1512
g4
I36162
sg5
I37163
sg6
S'502'
p1513
sba(iRequest
Request
p1514
(dp1515
g4
I11814
sg5
I12815
sg6
S'503'
p1516
sba(iRequest
Request
p1517
(dp1518
g4
I7318
sg5
I8319
sg6
S'504'
p1519
sba(iRequest
Request
p1520
(dp1521
g4
I41326
sg5
I42327
sg6
S'505'
p1522
sba(iRequest
Request
p1523
(dp1524
g4
I10127
sg5
I11128
sg6
S'506'
p1525
sba(iRequest
Request
p1526
(dp1527
g4
I6026
sg5
I7027
sg6
S'507'
p1528
sba(iRequest
Request
p1529
(dp1530
g4
I40239
sg5
I41240
sg6
S'508'
p1531
sba(iRequest
Request
p1532
(dp1533
g4
I27063
sg5
I28064
sg6
S'509'
p1534
sba(iRequest
Request
p1535
(dp1536
g4
I33119
sg5
I34120
sg6
S'510'
p1537
sba(iRequest
Request
p1538
(dp1539
g4
I32015
sg5
I33016
sg6
S'511'
p1540
sba(iRequest
Request
p1541
(dp1542
g4
I31864
sg5
I32865
sg6
S'512'
p1543
sba(iRequest
Request
p1544
(dp1545
g4
I24681
sg5
I25682
sg6
S'513'
p1546
sba(iRequest
Request
p1547
(dp1548
g4
I33869
sg5
I34870
sg6
S'514'
p1549
sba(iRequest
Request
p1550
(dp1551
g4
I23600
sg5
I24601
sg6
S'515'
p1552
sba(iRequest
Request
p1553
(dp1554
g4
I265
sg5
I1266
sg6
S'516'
p1555
sba(iRequest
Request
p1556
(dp1557
g4
I34713
sg5
I35714
sg6
S'517'
p1558
sba(iRequest
Request
p1559
(dp1560
g4
I26897
sg5
I27898
sg6
S'518'
p1561
sba(iRequest
Request
p1562
(dp1563
g4
I22650
sg5
I23651
sg6
S'519'
p1564
sba(iRequest
Request
p1565
(dp1566
g4
I25505
sg5
I26506
sg6
S'520'
p1567
sba(iRequest
Request
p1568
(dp1569
g4
I29429
sg5
I30430
sg6
S'521'
p1570
sba(iRequest
Request
p1571
(dp1572
g4
I8138
sg5
I9139
sg6
S'522'
p1573
sba(iRequest
Request
p1574
(dp1575
g4
I9653
sg5
I10654
sg6
S'523'
p1576
sba(iRequest
Request
p1577
(dp1578
g4
I36386
sg5
I37387
sg6
S'524'
p1579
sba(iRequest
Request
p1580
(dp1581
g4
I42049
sg5
I43050
sg6
S'525'
p1582
sba(iRequest
Request
p1583
(dp1584
g4
I29292
sg5
I30293
sg6
S'526'
p1585
sba(iRequest
Request
p1586
(dp1587
g4
I449
sg5
I1450
sg6
S'527'
p1588
sba(iRequest
Request
p1589
(dp1590
g4
I20015
sg5
I21016
sg6
S'528'
p1591
sba(iRequest
Request
p1592
(dp1593
g4
I2561
sg5
I3562
sg6
S'529'
p1594
sba(iRequest
Request
p1595
(dp1596
g4
I9613
sg5
I10614
sg6
S'530'
p1597
sba(iRequest
Request
p1598
(dp1599
g4
I39780
sg5
I40781
sg6
S'531'
p1600
sba(iRequest
Request
p1601
(dp1602
g4
I41728
sg5
I42729
sg6
S'532'
p1603
sba(iRequest
Request
p1604
(dp1605
g4
I35665
sg5
I36666
sg6
S'533'
p1606
sba(iRequest
Request
p1607
(dp1608
g4
I35785
sg5
I36786
sg6
S'534'
p1609
sba(iRequest
Request
p1610
(dp1611
g4
I11231
sg5
I12232
sg6
S'535'
p1612
sba(iRequest
Request
p1613
(dp1614
g4
I26362
sg5
I27363
sg6
S'536'
p1615
sba(iRequest
Request
p1616
(dp1617
g4
I38699
sg5
I39700
sg6
S'537'
p1618
sba(iRequest
Request
p1619
(dp1620
g4
I25408
sg5
I26409
sg6
S'538'
p1621
sba(iRequest
Request
p1622
(dp1623
g4
I40628
sg5
I41629
sg6
S'539'
p1624
sba(iRequest
Request
p1625
(dp1626
g4
I41708
sg5
I42709
sg6
S'540'
p1627
sba(iRequest
Request
p1628
(dp1629
g4
I33918
sg5
I34919
sg6
S'541'
p1630
sba(iRequest
Request
p1631
(dp1632
g4
I5455
sg5
I6456
sg6
S'542'
p1633
sba(iRequest
Request
p1634
(dp1635
g4
I31996
sg5
I32997
sg6
S'543'
p1636
sba(iRequest
Request
p1637
(dp1638
g4
I26866
sg5
I27867
sg6
S'544'
p1639
sba(iRequest
Request
p1640
(dp1641
g4
I30586
sg5
I31587
sg6
S'545'
p1642
sba(iRequest
Request
p1643
(dp1644
g4
I38809
sg5
I39810
sg6
S'546'
p1645
sba(iRequest
Request
p1646
(dp1647
g4
I39963
sg5
I40964
sg6
S'547'
p1648
sba(iRequest
Request
p1649
(dp1650
g4
I5084
sg5
I6085
sg6
S'548'
p1651
sba(iRequest
Request
p1652
(dp1653
g4
I36166
sg5
I37167
sg6
S'549'
p1654
sba(iRequest
Request
p1655
(dp1656
g4
I18557
sg5
I19558
sg6
S'550'
p1657
sba(iRequest
Request
p1658
(dp1659
g4
I22200
sg5
I23201
sg6
S'551'
p1660
sba(iRequest
Request
p1661
(dp1662
g4
I11227
sg5
I12228
sg6
S'552'
p1663
sba(iRequest
Request
p1664
(dp1665
g4
I22866
sg5
I23867
sg6
S'553'
p1666
sba(iRequest
Request
p1667
(dp1668
g4
I11255
sg5
I12256
sg6
S'554'
p1669
sba(iRequest
Request
p1670
(dp1671
g4
I32336
sg5
I33337
sg6
S'555'
p1672
sba(iRequest
Request
p1673
(dp1674
g4
I1894
sg5
I2895
sg6
S'556'
p1675
sba(iRequest
Request
p1676
(dp1677
g4
I34129
sg5
I35130
sg6
S'557'
p1678
sba(iRequest
Request
p1679
(dp1680
g4
I36299
sg5
I37300
sg6
S'558'
p1681
sba(iRequest
Request
p1682
(dp1683
g4
I32505
sg5
I33506
sg6
S'559'
p1684
sba(iRequest
Request
p1685
(dp1686
g4
I10309
sg5
I11310
sg6
S'560'
p1687
sba(iRequest
Request
p1688
(dp1689
g4
I38199
sg5
I39200
sg6
S'561'
p1690
sba(iRequest
Request
p1691
(dp1692
g4
I6349
sg5
I7350
sg6
S'562'
p1693
sba(iRequest
Request
p1694
(dp1695
g4
I38877
sg5
I39878
sg6
S'563'
p1696
sba(iRequest
Request
p1697
(dp1698
g4
I32937
sg5
I33938
sg6
S'564'
p1699
sba(iRequest
Request
p1700
(dp1701
g4
I14628
sg5
I15629
sg6
S'565'
p1702
sba(iRequest
Request
p1703
(dp1704
g4
I27005
sg5
I28006
sg6
S'566'
p1705
sba(iRequest
Request
p1706
(dp1707
g4
I24650
sg5
I25651
sg6
S'567'
p1708
sba(iRequest
Request
p1709
(dp1710
g4
I40924
sg5
I41925
sg6
S'568'
p1711
sba(iRequest
Request
p1712
(dp1713
g4
I2757
sg5
I3758
sg6
S'569'
p1714
sba(iRequest
Request
p1715
(dp1716
g4
I28814
sg5
I29815
sg6
S'570'
p1717
sba(iRequest
Request
p1718
(dp1719
g4
I10345
sg5
I11346
sg6
S'571'
p1720
sba(iRequest
Request
p1721
(dp1722
g4
I16391
sg5
I17392
sg6
S'572'
p1723
sba(iRequest
Request
p1724
(dp1725
g4
I12473
sg5
I13474
sg6
S'573'
p1726
sba(iRequest
Request
p1727
(dp1728
g4
I23893
sg5
I24894
sg6
S'574'
p1729
sba(iRequest
Request
p1730
(dp1731
g4
I6075
sg5
I7076
sg6
S'575'
p1732
sba(iRequest
Request
p1733
(dp1734
g4
I28260
sg5
I29261
sg6
S'576'
p1735
sba(iRequest
Request
p1736
(dp1737
g4
I10378
sg5
I11379
sg6
S'577'
p1738
sba(iRequest
Request
p1739
(dp1740
g4
I37336
sg5
I38337
sg6
S'578'
p1741
sba(iRequest
Request
p1742
(dp1743
g4
I10596
sg5
I11597
sg6
S'579'
p1744
sba(iRequest
Request
p1745
(dp1746
g4
I20588
sg5
I21589
sg6
S'580'
p1747
sba(iRequest
Request
p1748
(dp1749
g4
I23845
sg5
I24846
sg6
S'581'
p1750
sba(iRequest
Request
p1751
(dp1752
g4
I14157
sg5
I15158
sg6
S'582'
p1753
sba(iRequest
Request
p1754
(dp1755
g4
I14240
sg5
I15241
sg6
S'583'
p1756
sba(iRequest
Request
p1757
(dp1758
g4
I4689
sg5
I5690
sg6
S'584'
p1759
sba(iRequest
Request
p1760
(dp1761
g4
I38752
sg5
I39753
sg6
S'585'
p1762
sba(iRequest
Request
p1763
(dp1764
g4
I616
sg5
I1617
sg6
S'586'
p1765
sba(iRequest
Request
p1766
(dp1767
g4
I38786
sg5
I39787
sg6
S'587'
p1768
sba(iRequest
Request
p1769
(dp1770
g4
I14064
sg5
I15065
sg6
S'588'
p1771
sba(iRequest
Request
p1772
(dp1773
g4
I16174
sg5
I17175
sg6
S'589'
p1774
sba(iRequest
Request
p1775
(dp1776
g4
I23535
sg5
I24536
sg6
S'590'
p1777
sba(iRequest
Request
p1778
(dp1779
g4
I33555
sg5
I34556
sg6
S'591'
p1780
sba(iRequest
Request
p1781
(dp1782
g4
I26492
sg5
I27493
sg6
S'592'
p1783
sba(iRequest
Request
p1784
(dp1785
g4
I32538
sg5
I33539
sg6
S'593'
p1786
sba(iRequest
Request
p1787
(dp1788
g4
I3060
sg5
I4061
sg6
S'594'
p1789
sba(iRequest
Request
p1790
(dp1791
g4
I26820
sg5
I27821
sg6
S'595'
p1792
sba(iRequest
Request
p1793
(dp1794
g4
I37822
sg5
I38823
sg6
S'596'
p1795
sba(iRequest
Request
p1796
(dp1797
g4
I28889
sg5
I29890
sg6
S'597'
p1798
sba(iRequest
Request
p1799
(dp1800
g4
I13111
sg5
I14112
sg6
S'598'
p1801
sba(iRequest
Request
p1802
(dp1803
g4
I20312
sg5
I21313
sg6
S'599'
p1804
sba(iRequest
Request
p1805
(dp1806
g4
I29366
sg5
I30367
sg6
S'600'
p1807
sba(iRequest
Request
p1808
(dp1809
g4
I14607
sg5
I15608
sg6
S'601'
p1810
sba(iRequest
Request
p1811
(dp1812
g4
I15928
sg5
I16929
sg6
S'602'
p1813
sba(iRequest
Request
p1814
(dp1815
g4
I1062
sg5
I2063
sg6
S'603'
p1816
sba(iRequest
Request
p1817
(dp1818
g4
I41508
sg5
I42509
sg6
S'604'
p1819
sba(iRequest
Request
p1820
(dp1821
g4
I1926
sg5
I2927
sg6
S'605'
p1822
sba(iRequest
Request
p1823
(dp1824
g4
I23675
sg5
I24676
sg6
S'606'
p1825
sba(iRequest
Request
p1826
(dp1827
g4
I19643
sg5
I20644
sg6
S'607'
p1828
sba(iRequest
Request
p1829
(dp1830
g4
I35020
sg5
I36021
sg6
S'608'
p1831
sba(iRequest
Request
p1832
(dp1833
g4
I30443
sg5
I31444
sg6
S'609'
p1834
sba(iRequest
Request
p1835
(dp1836
g4
I37826
sg5
I38827
sg6
S'610'
p1837
sba(iRequest
Request
p1838
(dp1839
g4
I14521
sg5
I15522
sg6
S'611'
p1840
sba(iRequest
Request
p1841
(dp1842
g4
I16869
sg5
I17870
sg6
S'612'
p1843
sba(iRequest
Request
p1844
(dp1845
g4
I2136
sg5
I3137
sg6
S'613'
p1846
sba(iRequest
Request
p1847
(dp1848
g4
I38397
sg5
I39398
sg6
S'614'
p1849
sba(iRequest
Request
p1850
(dp1851
g4
I6241
sg5
I7242
sg6
S'615'
p1852
sba(iRequest
Request
p1853
(dp1854
g4
I29731
sg5
I30732
sg6
S'616'
p1855
sba(iRequest
Request
p1856
(dp1857
g4
I26131
sg5
I27132
sg6
S'617'
p1858
sba(iRequest
Request
p1859
(dp1860
g4
I9423
sg5
I10424
sg6
S'618'
p1861
sba(iRequest
Request
p1862
(dp1863
g4
I17977
sg5
I18978
sg6
S'619'
p1864
sba(iRequest
Request
p1865
(dp1866
g4
I25146
sg5
I26147
sg6
S'620'
p1867
sba(iRequest
Request
p1868
(dp1869
g4
I15444
sg5
I16445
sg6
S'621'
p1870
sba(iRequest
Request
p1871
(dp1872
g4
I16412
sg5
I17413
sg6
S'622'
p1873
sba(iRequest
Request
p1874
(dp1875
g4
I19554
sg5
I20555
sg6
S'623'
p1876
sba(iRequest
Request
p1877
(dp1878
g4
I11285
sg5
I12286
sg6
S'624'
p1879
sba(iRequest
Request
p1880
(dp1881
g4
I40096
sg5
I41097
sg6
S'625'
p1882
sba(iRequest
Request
p1883
(dp1884
g4
I14621
sg5
I15622
sg6
S'626'
p1885
sba(iRequest
Request
p1886
(dp1887
g4
I30426
sg5
I31427
sg6
S'627'
p1888
sba(iRequest
Request
p1889
(dp1890
g4
I25646
sg5
I26647
sg6
S'628'
p1891
sba(iRequest
Request
p1892
(dp1893
g4
I23463
sg5
I24464
sg6
S'629'
p1894
sba(iRequest
Request
p1895
(dp1896
g4
I27400
sg5
I28401
sg6
S'630'
p1897
sba(iRequest
Request
p1898
(dp1899
g4
I17186
sg5
I18187
sg6
S'631'
p1900
sba(iRequest
Request
p1901
(dp1902
g4
I30517
sg5
I31518
sg6
S'632'
p1903
sba(iRequest
Request
p1904
(dp1905
g4
I13604
sg5
I14605
sg6
S'633'
p1906
sba(iRequest
Request
p1907
(dp1908
g4
I16416
sg5
I17417
sg6
S'634'
p1909
sba(iRequest
Request
p1910
(dp1911
g4
I21576
sg5
I22577
sg6
S'635'
p1912
sba(iRequest
Request
p1913
(dp1914
g4
I19634
sg5
I20635
sg6
S'636'
p1915
sba(iRequest
Request
p1916
(dp1917
g4
I6666
sg5
I7667
sg6
S'637'
p1918
sba(iRequest
Request
p1919
(dp1920
g4
I24131
sg5
I25132
sg6
S'638'
p1921
sba(iRequest
Request
p1922
(dp1923
g4
I18573
sg5
I19574
sg6
S'639'
p1924
sba(iRequest
Request
p1925
(dp1926
g4
I37473
sg5
I38474
sg6
S'640'
p1927
sba(iRequest
Request
p1928
(dp1929
g4
I4236
sg5
I5237
sg6
S'641'
p1930
sba(iRequest
Request
p1931
(dp1932
g4
I4670
sg5
I5671
sg6
S'642'
p1933
sba(iRequest
Request
p1934
(dp1935
g4
I36931
sg5
I37932
sg6
S'643'
p1936
sba(iRequest
Request
p1937
(dp1938
g4
I6156
sg5
I7157
sg6
S'644'
p1939
sba(iRequest
Request
p1940
(dp1941
g4
I2562
sg5
I3563
sg6
S'645'
p1942
sba(iRequest
Request
p1943
(dp1944
g4
I8440
sg5
I9441
sg6
S'646'
p1945
sba(iRequest
Request
p1946
(dp1947
g4
I1400
sg5
I2401
sg6
S'647'
p1948
sba(iRequest
Request
p1949
(dp1950
g4
I10693
sg5
I11694
sg6
S'648'
p1951
sba(iRequest
Request
p1952
(dp1953
g4
I41847
sg5
I42848
sg6
S'649'
p1954
sba(iRequest
Request
p1955
(dp1956
g4
I6042
sg5
I7043
sg6
S'650'
p1957
sba(iRequest
Request
p1958
(dp1959
g4
I607
sg5
I1608
sg6
S'651'
p1960
sba(iRequest
Request
p1961
(dp1962
g4
I29407
sg5
I30408
sg6
S'652'
p1963
sba(iRequest
Request
p1964
(dp1965
g4
I35121
sg5
I36122
sg6
S'653'
p1966
sba(iRequest
Request
p1967
(dp1968
g4
I31878
sg5
I32879
sg6
S'654'
p1969
sba(iRequest
Request
p1970
(dp1971
g4
I27723
sg5
I28724
sg6
S'655'
p1972
sba(iRequest
Request
p1973
(dp1974
g4
I5475
sg5
I6476
sg6
S'656'
p1975
sba(iRequest
Request
p1976
(dp1977
g4
I17069
sg5
I18070
sg6
S'657'
p1978
sba(iRequest
Request
p1979
(dp1980
g4
I8061
sg5
I9062
sg6
S'658'
p1981
sba(iRequest
Request
p1982
(dp1983
g4
I30584
sg5
I31585
sg6
S'659'
p1984
sba(iRequest
Request
p1985
(dp1986
g4
I12091
sg5
I13092
sg6
S'660'
p1987
sba(iRequest
Request
p1988
(dp1989
g4
I6946
sg5
I7947
sg6
S'661'
p1990
sba(iRequest
Request
p1991
(dp1992
g4
I25441
sg5
I26442
sg6
S'662'
p1993
sba(iRequest
Request
p1994
(dp1995
g4
I7650
sg5
I8651
sg6
S'663'
p1996
sba(iRequest
Request
p1997
(dp1998
g4
I18210
sg5
I19211
sg6
S'664'
p1999
sba(iRequest
Request
p2000
(dp2001
g4
I14123
sg5
I15124
sg6
S'665'
p2002
sba(iRequest
Request
p2003
(dp2004
g4
I11372
sg5
I12373
sg6
S'666'
p2005
sba(iRequest
Request
p2006
(dp2007
g4
I23738
sg5
I24739
sg6
S'667'
p2008
sba(iRequest
Request
p2009
(dp2010
g4
I984
sg5
I1985
sg6
S'668'
p2011
sba(iRequest
Request
p2012
(dp2013
g4
I5753
sg5
I6754
sg6
S'669'
p2014
sba(iRequest
Request
p2015
(dp2016
g4
I9269
sg5
I10270
sg6
S'670'
p2017
sba(iRequest
Request
p2018
(dp2019
g4
I37824
sg5
I38825
sg6
S'671'
p2020
sba(iRequest
Request
p2021
(dp2022
g4
I19080
sg5
I20081
sg6
S'672'
p2023
sba(iRequest
Request
p2024
(dp2025
g4
I12815
sg5
I13816
sg6
S'673'
p2026
sba(iRequest
Request
p2027
(dp2028
g4
I21323
sg5
I22324
sg6
S'674'
p2029
sba(iRequest
Request
p2030
(dp2031
g4
I33064
sg5
I34065
sg6
S'675'
p2032
sba(iRequest
Request
p2033
(dp2034
g4
I42045
sg5
I43046
sg6
S'676'
p2035
sba(iRequest
Request
p2036
(dp2037
g4
I25949
sg5
I26950
sg6
S'677'
p2038
sba(iRequest
Request
p2039
(dp2040
g4
I38307
sg5
I39308
sg6
S'678'
p2041
sba(iRequest
Request
p2042
(dp2043
g4
I7007
sg5
I8008
sg6
S'679'
p2044
sba(iRequest
Request
p2045
(dp2046
g4
I26161
sg5
I27162
sg6
S'680'
p2047
sba(iRequest
Request
p2048
(dp2049
g4
I6063
sg5
I7064
sg6
S'681'
p2050
sba(iRequest
Request
p2051
(dp2052
g4
I2964
sg5
I3965
sg6
S'682'
p2053
sba(iRequest
Request
p2054
(dp2055
g4
I13280
sg5
I14281
sg6
S'683'
p2056
sba(iRequest
Request
p2057
(dp2058
g4
I19257
sg5
I20258
sg6
S'684'
p2059
sba(iRequest
Request
p2060
(dp2061
g4
I21300
sg5
I22301
sg6
S'685'
p2062
sba(iRequest
Request
p2063
(dp2064
g4
I8556
sg5
I9557
sg6
S'686'
p2065
sba(iRequest
Request
p2066
(dp2067
g4
I21329
sg5
I22330
sg6
S'687'
p2068
sba(iRequest
Request
p2069
(dp2070
g4
I39633
sg5
I40634
sg6
S'688'
p2071
sba(iRequest
Request
p2072
(dp2073
g4
I5059
sg5
I6060
sg6
S'689'
p2074
sba(iRequest
Request
p2075
(dp2076
g4
I8408
sg5
I9409
sg6
S'690'
p2077
sba(iRequest
Request
p2078
(dp2079
g4
I24707
sg5
I25708
sg6
S'691'
p2080
sba(iRequest
Request
p2081
(dp2082
g4
I39850
sg5
I40851
sg6
S'692'
p2083
sba(iRequest
Request
p2084
(dp2085
g4
I7175
sg5
I8176
sg6
S'693'
p2086
sba(iRequest
Request
p2087
(dp2088
g4
I2582
sg5
I3583
sg6
S'694'
p2089
sba(iRequest
Request
p2090
(dp2091
g4
I3698
sg5
I4699
sg6
S'695'
p2092
sba(iRequest
Request
p2093
(dp2094
g4
I31335
sg5
I32336
sg6
S'696'
p2095
sba(iRequest
Request
p2096
(dp2097
g4
I8670
sg5
I9671
sg6
S'697'
p2098
sba(iRequest
Request
p2099
(dp2100
g4
I414
sg5
I1415
sg6
S'698'
p2101
sba(iRequest
Request
p2102
(dp2103
g4
I23149
sg5
I24150
sg6
S'699'
p2104
sba(iRequest
Request
p2105
(dp2106
g4
I17992
sg5
I18993
sg6
S'700'
p2107
sba(iRequest
Request
p2108
(dp2109
g4
I27470
sg5
I28471
sg6
S'701'
p2110
sba(iRequest
Request
p2111
(dp2112
g4
I17797
sg5
I18798
sg6
S'702'
p2113
sba(iRequest
Request
p2114
(dp2115
g4
I28380
sg5
I29381
sg6
S'703'
p2116
sba(iRequest
Request
p2117
(dp2118
g4
I24768
sg5
I25769
sg6
S'704'
p2119
sba(iRequest
Request
p2120
(dp2121
g4
I34640
sg5
I35641
sg6
S'705'
p2122
sba(iRequest
Request
p2123
(dp2124
g4
I35543
sg5
I36544
sg6
S'706'
p2125
sba(iRequest
Request
p2126
(dp2127
g4
I35566
sg5
I36567
sg6
S'707'
p2128
sba(iRequest
Request
p2129
(dp2130
g4
I40279
sg5
I41280
sg6
S'708'
p2131
sba(iRequest
Request
p2132
(dp2133
g4
I20066
sg5
I21067
sg6
S'709'
p2134
sba(iRequest
Request
p2135
(dp2136
g4
I1498
sg5
I2499
sg6
S'710'
p2137
sba(iRequest
Request
p2138
(dp2139
g4
I7080
sg5
I8081
sg6
S'711'
p2140
sba(iRequest
Request
p2141
(dp2142
g4
I13913
sg5
I14914
sg6
S'712'
p2143
sba(iRequest
Request
p2144
(dp2145
g4
I1378
sg5
I2379
sg6
S'713'
p2146
sba(iRequest
Request
p2147
(dp2148
g4
I30596
sg5
I31597
sg6
S'714'
p2149
sba(iRequest
Request
p2150
(dp2151
g4
I37831
sg5
I38832
sg6
S'715'
p2152
sba(iRequest
Request
p2153
(dp2154
g4
I15690
sg5
I16691
sg6
S'716'
p2155
sba(iRequest
Request
p2156
(dp2157
g4
I8512
sg5
I9513
sg6
S'717'
p2158
sba(iRequest
Request
p2159
(dp2160
g4
I11121
sg5
I12122
sg6
S'718'
p2161
sba(iRequest
Request
p2162
(dp2163
g4
I9447
sg5
I10448
sg6
S'719'
p2164
sba(iRequest
Request
p2165
(dp2166
g4
I25750
sg5
I26751
sg6
S'720'
p2167
sba(iRequest
Request
p2168
(dp2169
g4
I13087
sg5
I14088
sg6
S'721'
p2170
sba(iRequest
Request
p2171
(dp2172
g4
I24462
sg5
I25463
sg6
S'722'
p2173
sba(iRequest
Request
p2174
(dp2175
g4
I3279
sg5
I4280
sg6
S'723'
p2176
sba(iRequest
Request
p2177
(dp2178
g4
I26291
sg5
I27292
sg6
S'724'
p2179
sba(iRequest
Request
p2180
(dp2181
g4
I39024
sg5
I40025
sg6
S'725'
p2182
sba(iRequest
Request
p2183
(dp2184
g4
I29291
sg5
I30292
sg6
S'726'
p2185
sba(iRequest
Request
p2186
(dp2187
g4
I22450
sg5
I23451
sg6
S'727'
p2188
sba(iRequest
Request
p2189
(dp2190
g4
I11732
sg5
I12733
sg6
S'728'
p2191
sba(iRequest
Request
p2192
(dp2193
g4
I10357
sg5
I11358
sg6
S'729'
p2194
sba(iRequest
Request
p2195
(dp2196
g4
I21398
sg5
I22399
sg6
S'730'
p2197
sba(iRequest
Request
p2198
(dp2199
g4
I18640
sg5
I19641
sg6
S'731'
p2200
sba(iRequest
Request
p2201
(dp2202
g4
I16795
sg5
I17796
sg6
S'732'
p2203
sba(iRequest
Request
p2204
(dp2205
g4
I7166
sg5
I8167
sg6
S'733'
p2206
sba(iRequest
Request
p2207
(dp2208
g4
I9534
sg5
I10535
sg6
S'734'
p2209
sba(iRequest
Request
p2210
(dp2211
g4
I25976
sg5
I26977
sg6
S'735'
p2212
sba(iRequest
Request
p2213
(dp2214
g4
I21909
sg5
I22910
sg6
S'736'
p2215
sba(iRequest
Request
p2216
(dp2217
g4
I7058
sg5
I8059
sg6
S'737'
p2218
sba(iRequest
Request
p2219
(dp2220
g4
I3869
sg5
I4870
sg6
S'738'
p2221
sba(iRequest
Request
p2222
(dp2223
g4
I40324
sg5
I41325
sg6
S'739'
p2224
sba(iRequest
Request
p2225
(dp2226
g4
I21233
sg5
I22234
sg6
S'740'
p2227
sba(iRequest
Request
p2228
(dp2229
g4
I41209
sg5
I42210
sg6
S'741'
p2230
sba(iRequest
Request
p2231
(dp2232
g4
I35045
sg5
I36046
sg6
S'742'
p2233
sba(iRequest
Request
p2234
(dp2235
g4
I18013
sg5
I19014
sg6
S'743'
p2236
sba(iRequest
Request
p2237
(dp2238
g4
I34297
sg5
I35298
sg6
S'744'
p2239
sba(iRequest
Request
p2240
(dp2241
g4
I8761
sg5
I9762
sg6
S'745'
p2242
sba(iRequest
Request
p2243
(dp2244
g4
I15155
sg5
I16156
sg6
S'746'
p2245
sba(iRequest
Request
p2246
(dp2247
g4
I32190
sg5
I33191
sg6
S'747'
p2248
sba(iRequest
Request
p2249
(dp2250
g4
I6754
sg5
I7755
sg6
S'748'
p2251
sba(iRequest
Request
p2252
(dp2253
g4
I34105
sg5
I35106
sg6
S'749'
p2254
sba(iRequest
Request
p2255
(dp2256
g4
I35312
sg5
I36313
sg6
S'750'
p2257
sba(iRequest
Request
p2258
(dp2259
g4
I18053
sg5
I19054
sg6
S'751'
p2260
sba(iRequest
Request
p2261
(dp2262
g4
I41046
sg5
I42047
sg6
S'752'
p2263
sba(iRequest
Request
p2264
(dp2265
g4
I24504
sg5
I25505
sg6
S'753'
p2266
sba(iRequest
Request
p2267
(dp2268
g4
I28833
sg5
I29834
sg6
S'754'
p2269
sba(iRequest
Request
p2270
(dp2271
g4
I9037
sg5
I10038
sg6
S'755'
p2272
sba(iRequest
Request
p2273
(dp2274
g4
I24645
sg5
I25646
sg6
S'756'
p2275
sba(iRequest
Request
p2276
(dp2277
g4
I13897
sg5
I14898
sg6
S'757'
p2278
sba(iRequest
Request
p2279
(dp2280
g4
I39515
sg5
I40516
sg6
S'758'
p2281
sba(iRequest
Request
p2282
(dp2283
g4
I16527
sg5
I17528
sg6
S'759'
p2284
sba(iRequest
Request
p2285
(dp2286
g4
I9550
sg5
I10551
sg6
S'760'
p2287
sba(iRequest
Request
p2288
(dp2289
g4
I17875
sg5
I18876
sg6
S'761'
p2290
sba(iRequest
Request
p2291
(dp2292
g4
I37829
sg5
I38830
sg6
S'762'
p2293
sba(iRequest
Request
p2294
(dp2295
g4
I5797
sg5
I6798
sg6
S'763'
p2296
sba(iRequest
Request
p2297
(dp2298
g4
I40167
sg5
I41168
sg6
S'764'
p2299
sba(iRequest
Request
p2300
(dp2301
g4
I15065
sg5
I16066
sg6
S'765'
p2302
sba(iRequest
Request
p2303
(dp2304
g4
I37667
sg5
I38668
sg6
S'766'
p2305
sba(iRequest
Request
p2306
(dp2307
g4
I24208
sg5
I25209
sg6
S'767'
p2308
sba(iRequest
Request
p2309
(dp2310
g4
I39376
sg5
I40377
sg6
S'768'
p2311
sba(iRequest
Request
p2312
(dp2313
g4
I12653
sg5
I13654
sg6
S'769'
p2314
sba(iRequest
Request
p2315
(dp2316
g4
I27359
sg5
I28360
sg6
S'770'
p2317
sba(iRequest
Request
p2318
(dp2319
g4
I15787
sg5
I16788
sg6
S'771'
p2320
sba(iRequest
Request
p2321
(dp2322
g4
I7557
sg5
I8558
sg6
S'772'
p2323
sba(iRequest
Request
p2324
(dp2325
g4
I38674
sg5
I39675
sg6
S'773'
p2326
sba(iRequest
Request
p2327
(dp2328
g4
I22873
sg5
I23874
sg6
S'774'
p2329
sba(iRequest
Request
p2330
(dp2331
g4
I30759
sg5
I31760
sg6
S'775'
p2332
sba(iRequest
Request
p2333
(dp2334
g4
I13322
sg5
I14323
sg6
S'776'
p2335
sba(iRequest
Request
p2336
(dp2337
g4
I24219
sg5
I25220
sg6
S'777'
p2338
sba(iRequest
Request
p2339
(dp2340
g4
I14063
sg5
I15064
sg6
S'778'
p2341
sba(iRequest
Request
p2342
(dp2343
g4
I40098
sg5
I41099
sg6
S'779'
p2344
sba(iRequest
Request
p2345
(dp2346
g4
I20726
sg5
I21727
sg6
S'780'
p2347
sba(iRequest
Request
p2348
(dp2349
g4
I9281
sg5
I10282
sg6
S'781'
p2350
sba(iRequest
Request
p2351
(dp2352
g4
I19845
sg5
I20846
sg6
S'782'
p2353
sba(iRequest
Request
p2354
(dp2355
g4
I24439
sg5
I25440
sg6
S'783'
p2356
sba(iRequest
Request
p2357
(dp2358
g4
I24560
sg5
I25561
sg6
S'784'
p2359
sba(iRequest
Request
p2360
(dp2361
g4
I36748
sg5
I37749
sg6
S'785'
p2362
sba(iRequest
Request
p2363
(dp2364
g4
I6438
sg5
I7439
sg6
S'786'
p2365
sba(iRequest
Request
p2366
(dp2367
g4
I39354
sg5
I40355
sg6
S'787'
p2368
sba(iRequest
Request
p2369
(dp2370
g4
I29047
sg5
I30048
sg6
S'788'
p2371
sba(iRequest
Request
p2372
(dp2373
g4
I17917
sg5
I18918
sg6
S'789'
p2374
sba(iRequest
Request
p2375
(dp2376
g4
I12498
sg5
I13499
sg6
S'790'
p2377
sba(iRequest
Request
p2378
(dp2379
g4
I27648
sg5
I28649
sg6
S'791'
p2380
sba(iRequest
Request
p2381
(dp2382
g4
I36639
sg5
I37640
sg6
S'792'
p2383
sba(iRequest
Request
p2384
(dp2385
g4
I40083
sg5
I41084
sg6
S'793'
p2386
sba(iRequest
Request
p2387
(dp2388
g4
I269
sg5
I1270
sg6
S'794'
p2389
sba(iRequest
Request
p2390
(dp2391
g4
I3587
sg5
I4588
sg6
S'795'
p2392
sba(iRequest
Request
p2393
(dp2394
g4
I24397
sg5
I25398
sg6
S'796'
p2395
sba(iRequest
Request
p2396
(dp2397
g4
I34665
sg5
I35666
sg6
S'797'
p2398
sba(iRequest
Request
p2399
(dp2400
g4
I40489
sg5
I41490
sg6
S'798'
p2401
sba(iRequest
Request
p2402
(dp2403
g4
I10521
sg5
I11522
sg6
S'799'
p2404
sba(iRequest
Request
p2405
(dp2406
g4
I36791
sg5
I37792
sg6
S'800'
p2407
sba(iRequest
Request
p2408
(dp2409
g4
I34092
sg5
I35093
sg6
S'801'
p2410
sba(iRequest
Request
p2411
(dp2412
g4
I18202
sg5
I19203
sg6
S'802'
p2413
sba(iRequest
Request
p2414
(dp2415
g4
I40497
sg5
I41498
sg6
S'803'
p2416
sba(iRequest
Request
p2417
(dp2418
g4
I6259
sg5
I7260
sg6
S'804'
p2419
sba(iRequest
Request
p2420
(dp2421
g4
I14564
sg5
I15565
sg6
S'805'
p2422
sba(iRequest
Request
p2423
(dp2424
g4
I24990
sg5
I25991
sg6
S'806'
p2425
sba(iRequest
Request
p2426
(dp2427
g4
I20527
sg5
I21528
sg6
S'807'
p2428
sba(iRequest
Request
p2429
(dp2430
g4
I41544
sg5
I42545
sg6
S'808'
p2431
sba(iRequest
Request
p2432
(dp2433
g4
I5975
sg5
I6976
sg6
S'809'
p2434
sba(iRequest
Request
p2435
(dp2436
g4
I24747
sg5
I25748
sg6
S'810'
p2437
sba(iRequest
Request
p2438
(dp2439
g4
I20566
sg5
I21567
sg6
S'811'
p2440
sba(iRequest
Request
p2441
(dp2442
g4
I18758
sg5
I19759
sg6
S'812'
p2443
sba(iRequest
Request
p2444
(dp2445
g4
I12156
sg5
I13157
sg6
S'813'
p2446
sba(iRequest
Request
p2447
(dp2448
g4
I12413
sg5
I13414
sg6
S'814'
p2449
sba(iRequest
Request
p2450
(dp2451
g4
I10405
sg5
I11406
sg6
S'815'
p2452
sba(iRequest
Request
p2453
(dp2454
g4
I40378
sg5
I41379
sg6
S'816'
p2455
sba(iRequest
Request
p2456
(dp2457
g4
I42191
sg5
I43192
sg6
S'817'
p2458
sba(iRequest
Request
p2459
(dp2460
g4
I19031
sg5
I20032
sg6
S'818'
p2461
sba(iRequest
Request
p2462
(dp2463
g4
I20426
sg5
I21427
sg6
S'819'
p2464
sba(iRequest
Request
p2465
(dp2466
g4
I29897
sg5
I30898
sg6
S'820'
p2467
sba(iRequest
Request
p2468
(dp2469
g4
I16131
sg5
I17132
sg6
S'821'
p2470
sba(iRequest
Request
p2471
(dp2472
g4
I11035
sg5
I12036
sg6
S'822'
p2473
sba(iRequest
Request
p2474
(dp2475
g4
I40359
sg5
I41360
sg6
S'823'
p2476
sba(iRequest
Request
p2477
(dp2478
g4
I993
sg5
I1994
sg6
S'824'
p2479
sba(iRequest
Request
p2480
(dp2481
g4
I33810
sg5
I34811
sg6
S'825'
p2482
sba(iRequest
Request
p2483
(dp2484
g4
I26889
sg5
I27890
sg6
S'826'
p2485
sba(iRequest
Request
p2486
(dp2487
g4
I6407
sg5
I7408
sg6
S'827'
p2488
sba(iRequest
Request
p2489
(dp2490
g4
I2779
sg5
I3780
sg6
S'828'
p2491
sba(iRequest
Request
p2492
(dp2493
g4
I1623
sg5
I2624
sg6
S'829'
p2494
sba(iRequest
Request
p2495
(dp2496
g4
I21148
sg5
I22149
sg6
S'830'
p2497
sba(iRequest
Request
p2498
(dp2499
g4
I38825
sg5
I39826
sg6
S'831'
p2500
sba(iRequest
Request
p2501
(dp2502
g4
I7210
sg5
I8211
sg6
S'832'
p2503
sba(iRequest
Request
p2504
(dp2505
g4
I276
sg5
I1277
sg6
S'833'
p2506
sba(iRequest
Request
p2507
(dp2508
g4
I13820
sg5
I14821
sg6
S'834'
p2509
sba(iRequest
Request
p2510
(dp2511
g4
I38250
sg5
I39251
sg6
S'835'
p2512
sba(iRequest
Request
p2513
(dp2514
g4
I8471
sg5
I9472
sg6
S'836'
p2515
sba(iRequest
Request
p2516
(dp2517
g4
I10426
sg5
I11427
sg6
S'837'
p2518
sba(iRequest
Request
p2519
(dp2520
g4
I37516
sg5
I38517
sg6
S'838'
p2521
sba(iRequest
Request
p2522
(dp2523
g4
I9508
sg5
I10509
sg6
S'839'
p2524
sba(iRequest
Request
p2525
(dp2526
g4
I17198
sg5
I18199
sg6
S'840'
p2527
sba(iRequest
Request
p2528
(dp2529
g4
I5951
sg5
I6952
sg6
S'841'
p2530
sba(iRequest
Request
p2531
(dp2532
g4
I25205
sg5
I26206
sg6
S'842'
p2533
sba(iRequest
Request
p2534
(dp2535
g4
I11460
sg5
I12461
sg6
S'843'
p2536
sba(iRequest
Request
p2537
(dp2538
g4
I39013
sg5
I40014
sg6
S'844'
p2539
sba(iRequest
Request
p2540
(dp2541
g4
I3938
sg5
I4939
sg6
S'845'
p2542
sba(iRequest
Request
p2543
(dp2544
g4
I25886
sg5
I26887
sg6
S'846'
p2545
sba(iRequest
Request
p2546
(dp2547
g4
I13654
sg5
I14655
sg6
S'847'
p2548
sba(iRequest
Request
p2549
(dp2550
g4
I19681
sg5
I20682
sg6
S'848'
p2551
sba(iRequest
Request
p2552
(dp2553
g4
I1667
sg5
I2668
sg6
S'849'
p2554
sba(iRequest
Request
p2555
(dp2556
g4
I41418
sg5
I42419
sg6
S'850'
p2557
sba(iRequest
Request
p2558
(dp2559
g4
I21578
sg5
I22579
sg6
S'851'
p2560
sba(iRequest
Request
p2561
(dp2562
g4
I15742
sg5
I16743
sg6
S'852'
p2563
sba(iRequest
Request
p2564
(dp2565
g4
I28642
sg5
I29643
sg6
S'853'
p2566
sba(iRequest
Request
p2567
(dp2568
g4
I13378
sg5
I14379
sg6
S'854'
p2569
sba(iRequest
Request
p2570
(dp2571
g4
I32238
sg5
I33239
sg6
S'855'
p2572
sba(iRequest
Request
p2573
(dp2574
g4
I36613
sg5
I37614
sg6
S'856'
p2575
sba(iRequest
Request
p2576
(dp2577
g4
I42125
sg5
I43126
sg6
S'857'
p2578
sba(iRequest
Request
p2579
(dp2580
g4
I2389
sg5
I3390
sg6
S'858'
p2581
sba(iRequest
Request
p2582
(dp2583
g4
I21537
sg5
I22538
sg6
S'859'
p2584
sba(iRequest
Request
p2585
(dp2586
g4
I15869
sg5
I16870
sg6
S'860'
p2587
sba(iRequest
Request
p2588
(dp2589
g4
I27247
sg5
I28248
sg6
S'861'
p2590
sba(iRequest
Request
p2591
(dp2592
g4
I12119
sg5
I13120
sg6
S'862'
p2593
sba(iRequest
Request
p2594
(dp2595
g4
I3086
sg5
I4087
sg6
S'863'
p2596
sba(iRequest
Request
p2597
(dp2598
g4
I28756
sg5
I29757
sg6
S'864'
p2599
sba(iRequest
Request
p2600
(dp2601
g4
I15414
sg5
I16415
sg6
S'865'
p2602
sba(iRequest
Request
p2603
(dp2604
g4
I37322
sg5
I38323
sg6
S'866'
p2605
sba(iRequest
Request
p2606
(dp2607
g4
I33376
sg5
I34377
sg6
S'867'
p2608
sba(iRequest
Request
p2609
(dp2610
g4
I30203
sg5
I31204
sg6
S'868'
p2611
sba(iRequest
Request
p2612
(dp2613
g4
I20453
sg5
I21454
sg6
S'869'
p2614
sba(iRequest
Request
p2615
(dp2616
g4
I11048
sg5
I12049
sg6
S'870'
p2617
sba(iRequest
Request
p2618
(dp2619
g4
I35358
sg5
I36359
sg6
S'871'
p2620
sba(iRequest
Request
p2621
(dp2622
g4
I5815
sg5
I6816
sg6
S'872'
p2623
sba(iRequest
Request
p2624
(dp2625
g4
I36798
sg5
I37799
sg6
S'873'
p2626
sba(iRequest
Request
p2627
(dp2628
g4
I18474
sg5
I19475
sg6
S'874'
p2629
sba(iRequest
Request
p2630
(dp2631
g4
I28194
sg5
I29195
sg6
S'875'
p2632
sba(iRequest
Request
p2633
(dp2634
g4
I37960
sg5
I38961
sg6
S'876'
p2635
sba(iRequest
Request
p2636
(dp2637
g4
I11651
sg5
I12652
sg6
S'877'
p2638
sba(iRequest
Request
p2639
(dp2640
g4
I41160
sg5
I42161
sg6
S'878'
p2641
sba(iRequest
Request
p2642
(dp2643
g4
I41784
sg5
I42785
sg6
S'879'
p2644
sba(iRequest
Request
p2645
(dp2646
g4
I23145
sg5
I24146
sg6
S'880'
p2647
sba(iRequest
Request
p2648
(dp2649
g4
I17867
sg5
I18868
sg6
S'881'
p2650
sba(iRequest
Request
p2651
(dp2652
g4
I10956
sg5
I11957
sg6
S'882'
p2653
sba(iRequest
Request
p2654
(dp2655
g4
I26542
sg5
I27543
sg6
S'883'
p2656
sba(iRequest
Request
p2657
(dp2658
g4
I10598
sg5
I11599
sg6
S'884'
p2659
sba(iRequest
Request
p2660
(dp2661
g4
I12630
sg5
I13631
sg6
S'885'
p2662
sba(iRequest
Request
p2663
(dp2664
g4
I8143
sg5
I9144
sg6
S'886'
p2665
sba(iRequest
Request
p2666
(dp2667
g4
I25664
sg5
I26665
sg6
S'887'
p2668
sba(iRequest
Request
p2669
(dp2670
g4
I9883
sg5
I10884
sg6
S'888'
p2671
sba(iRequest
Request
p2672
(dp2673
g4
I20449
sg5
I21450
sg6
S'889'
p2674
sba(iRequest
Request
p2675
(dp2676
g4
I14891
sg5
I15892
sg6
S'890'
p2677
sba(iRequest
Request
p2678
(dp2679
g4
I36429
sg5
I37430
sg6
S'891'
p2680
sba(iRequest
Request
p2681
(dp2682
g4
I2391
sg5
I3392
sg6
S'892'
p2683
sba(iRequest
Request
p2684
(dp2685
g4
I1830
sg5
I2831
sg6
S'893'
p2686
sba(iRequest
Request
p2687
(dp2688
g4
I5248
sg5
I6249
sg6
S'894'
p2689
sba(iRequest
Request
p2690
(dp2691
g4
I28687
sg5
I29688
sg6
S'895'
p2692
sba(iRequest
Request
p2693
(dp2694
g4
I39254
sg5
I40255
sg6
S'896'
p2695
sba(iRequest
Request
p2696
(dp2697
g4
I28297
sg5
I29298
sg6
S'897'
p2698
sba(iRequest
Request
p2699
(dp2700
g4
I21122
sg5
I22123
sg6
S'898'
p2701
sba(iRequest
Request
p2702
(dp2703
g4
I3755
sg5
I4756
sg6
S'899'
p2704
sba(iRequest
Request
p2705
(dp2706
g4
I22152
sg5
I23153
sg6
S'900'
p2707
sba(iRequest
Request
p2708
(dp2709
g4
I14430
sg5
I15431
sg6
S'901'
p2710
sba(iRequest
Request
p2711
(dp2712
g4
I19044
sg5
I20045
sg6
S'902'
p2713
sba(iRequest
Request
p2714
(dp2715
g4
I8524
sg5
I9525
sg6
S'903'
p2716
sba(iRequest
Request
p2717
(dp2718
g4
I8293
sg5
I9294
sg6
S'904'
p2719
sba(iRequest
Request
p2720
(dp2721
g4
I27613
sg5
I28614
sg6
S'905'
p2722
sba(iRequest
Request
p2723
(dp2724
g4
I15714
sg5
I16715
sg6
S'906'
p2725
sba(iRequest
Request
p2726
(dp2727
g4
I33856
sg5
I34857
sg6
S'907'
p2728
sba(iRequest
Request
p2729
(dp2730
g4
I3169
sg5
I4170
sg6
S'908'
p2731
sba(iRequest
Request
p2732
(dp2733
g4
I11316
sg5
I12317
sg6
S'909'
p2734
sba(iRequest
Request
p2735
(dp2736
g4
I33420
sg5
I34421
sg6
S'910'
p2737
sba(iRequest
Request
p2738
(dp2739
g4
I23512
sg5
I24513
sg6
S'911'
p2740
sba(iRequest
Request
p2741
(dp2742
g4
I7637
sg5
I8638
sg6
S'912'
p2743
sba(iRequest
Request
p2744
(dp2745
g4
I29167
sg5
I30168
sg6
S'913'
p2746
sba(iRequest
Request
p2747
(dp2748
g4
I25170
sg5
I26171
sg6
S'914'
p2749
sba(iRequest
Request
p2750
(dp2751
g4
I16523
sg5
I17524
sg6
S'915'
p2752
sba(iRequest
Request
p2753
(dp2754
g4
I10771
sg5
I11772
sg6
S'916'
p2755
sba(iRequest
Request
p2756
(dp2757
g4
I38317
sg5
I39318
sg6
S'917'
p2758
sba(iRequest
Request
p2759
(dp2760
g4
I32050
sg5
I33051
sg6
S'918'
p2761
sba(iRequest
Request
p2762
(dp2763
g4
I13507
sg5
I14508
sg6
S'919'
p2764
sba(iRequest
Request
p2765
(dp2766
g4
I8970
sg5
I9971
sg6
S'920'
p2767
sba(iRequest
Request
p2768
(dp2769
g4
I7345
sg5
I8346
sg6
S'921'
p2770
sba(iRequest
Request
p2771
(dp2772
g4
I33688
sg5
I34689
sg6
S'922'
p2773
sba(iRequest
Request
p2774
(dp2775
g4
I27002
sg5
I28003
sg6
S'923'
p2776
sba(iRequest
Request
p2777
(dp2778
g4
I26300
sg5
I27301
sg6
S'924'
p2779
sba(iRequest
Request
p2780
(dp2781
g4
I22862
sg5
I23863
sg6
S'925'
p2782
sba(iRequest
Request
p2783
(dp2784
g4
I37461
sg5
I38462
sg6
S'926'
p2785
sba(iRequest
Request
p2786
(dp2787
g4
I21927
sg5
I22928
sg6
S'927'
p2788
sba(iRequest
Request
p2789
(dp2790
g4
I7910
sg5
I8911
sg6
S'928'
p2791
sba(iRequest
Request
p2792
(dp2793
g4
I14322
sg5
I15323
sg6
S'929'
p2794
sba(iRequest
Request
p2795
(dp2796
g4
I20762
sg5
I21763
sg6
S'930'
p2797
sba(iRequest
Request
p2798
(dp2799
g4
I38324
sg5
I39325
sg6
S'931'
p2800
sba(iRequest
Request
p2801
(dp2802
g4
I8019
sg5
I9020
sg6
S'932'
p2803
sba(iRequest
Request
p2804
(dp2805
g4
I7048
sg5
I8049
sg6
S'933'
p2806
sba(iRequest
Request
p2807
(dp2808
g4
I29568
sg5
I30569
sg6
S'934'
p2809
sba(iRequest
Request
p2810
(dp2811
g4
I17120
sg5
I18121
sg6
S'935'
p2812
sba(iRequest
Request
p2813
(dp2814
g4
I27775
sg5
I28776
sg6
S'936'
p2815
sba(iRequest
Request
p2816
(dp2817
g4
I41717
sg5
I42718
sg6
S'937'
p2818
sba(iRequest
Request
p2819
(dp2820
g4
I26000
sg5
I27001
sg6
S'938'
p2821
sba(iRequest
Request
p2822
(dp2823
g4
I22101
sg5
I23102
sg6
S'939'
p2824
sba(iRequest
Request
p2825
(dp2826
g4
I24617
sg5
I25618
sg6
S'940'
p2827
sba(iRequest
Request
p2828
(dp2829
g4
I19975
sg5
I20976
sg6
S'941'
p2830
sba(iRequest
Request
p2831
(dp2832
g4
I37992
sg5
I38993
sg6
S'942'
p2833
sba(iRequest
Request
p2834
(dp2835
g4
I35606
sg5
I36607
sg6
S'943'
p2836
sba(iRequest
Request
p2837
(dp2838
g4
I24261
sg5
I25262
sg6
S'944'
p2839
sba(iRequest
Request
p2840
(dp2841
g4
I1078
sg5
I2079
sg6
S'945'
p2842
sba(iRequest
Request
p2843
(dp2844
g4
I2979
sg5
I3980
sg6
S'946'
p2845
sba(iRequest
Request
p2846
(dp2847
g4
I8230
sg5
I9231
sg6
S'947'
p2848
sba(iRequest
Request
p2849
(dp2850
g4
I11815
sg5
I12816
sg6
S'948'
p2851
sba(iRequest
Request
p2852
(dp2853
g4
I29001
sg5
I30002
sg6
S'949'
p2854
sba(iRequest
Request
p2855
(dp2856
g4
I23143
sg5
I24144
sg6
S'950'
p2857
sba(iRequest
Request
p2858
(dp2859
g4
I23237
sg5
I24238
sg6
S'951'
p2860
sba(iRequest
Request
p2861
(dp2862
g4
I21836
sg5
I22837
sg6
S'952'
p2863
sba(iRequest
Request
p2864
(dp2865
g4
I3211
sg5
I4212
sg6
S'953'
p2866
sba(iRequest
Request
p2867
(dp2868
g4
I33699
sg5
I34700
sg6
S'954'
p2869
sba(iRequest
Request
p2870
(dp2871
g4
I18762
sg5
I19763
sg6
S'955'
p2872
sba(iRequest
Request
p2873
(dp2874
g4
I11704
sg5
I12705
sg6
S'956'
p2875
sba(iRequest
Request
p2876
(dp2877
g4
I10570
sg5
I11571
sg6
S'957'
p2878
sba(iRequest
Request
p2879
(dp2880
g4
I746
sg5
I1747
sg6
S'958'
p2881
sba(iRequest
Request
p2882
(dp2883
g4
I15731
sg5
I16732
sg6
S'959'
p2884
sba(iRequest
Request
p2885
(dp2886
g4
I6621
sg5
I7622
sg6
S'960'
p2887
sba(iRequest
Request
p2888
(dp2889
g4
I29670
sg5
I30671
sg6
S'961'
p2890
sba(iRequest
Request
p2891
(dp2892
g4
I31265
sg5
I32266
sg6
S'962'
p2893
sba(iRequest
Request
p2894
(dp2895
g4
I7737
sg5
I8738
sg6
S'963'
p2896
sba(iRequest
Request
p2897
(dp2898
g4
I8844
sg5
I9845
sg6
S'964'
p2899
sba(iRequest
Request
p2900
(dp2901
g4
I30306
sg5
I31307
sg6
S'965'
p2902
sba(iRequest
Request
p2903
(dp2904
g4
I33681
sg5
I34682
sg6
S'966'
p2905
sba(iRequest
Request
p2906
(dp2907
g4
I33879
sg5
I34880
sg6
S'967'
p2908
sba(iRequest
Request
p2909
(dp2910
g4
I18435
sg5
I19436
sg6
S'968'
p2911
sba(iRequest
Request
p2912
(dp2913
g4
I18980
sg5
I19981
sg6
S'969'
p2914
sba(iRequest
Request
p2915
(dp2916
g4
I41597
sg5
I42598
sg6
S'970'
p2917
sba(iRequest
Request
p2918
(dp2919
g4
I27960
sg5
I28961
sg6
S'971'
p2920
sba(iRequest
Request
p2921
(dp2922
g4
I2758
sg5
I3759
sg6
S'972'
p2923
sba(iRequest
Request
p2924
(dp2925
g4
I27599
sg5
I28600
sg6
S'973'
p2926
sba(iRequest
Request
p2927
(dp2928
g4
I37374
sg5
I38375
sg6
S'974'
p2929
sba(iRequest
Request
p2930
(dp2931
g4
I10679
sg5
I11680
sg6
S'975'
p2932
sba(iRequest
Request
p2933
(dp2934
g4
I41535
sg5
I42536
sg6
S'976'
p2935
sba(iRequest
Request
p2936
(dp2937
g4
I13507
sg5
I14508
sg6
S'977'
p2938
sba(iRequest
Request
p2939
(dp2940
g4
I7578
sg5
I8579
sg6
S'978'
p2941
sba(iRequest
Request
p2942
(dp2943
g4
I14277
sg5
I15278
sg6
S'979'
p2944
sba(iRequest
Request
p2945
(dp2946
g4
I23096
sg5
I24097
sg6
S'980'
p2947
sba(iRequest
Request
p2948
(dp2949
g4
I25274
sg5
I26275
sg6
S'981'
p2950
sba(iRequest
Request
p2951
(dp2952
g4
I21884
sg5
I22885
sg6
S'982'
p2953
sba(iRequest
Request
p2954
(dp2955
g4
I31378
sg5
I32379
sg6
S'983'
p2956
sba(iRequest
Request
p2957
(dp2958
g4
I29186
sg5
I30187
sg6
S'984'
p2959
sba(iRequest
Request
p2960
(dp2961
g4
I12467
sg5
I13468
sg6
S'985'
p2962
sba(iRequest
Request
p2963
(dp2964
g4
I37413
sg5
I38414
sg6
S'986'
p2965
sba(iRequest
Request
p2966
(dp2967
g4
I29693
sg5
I30694
sg6
S'987'
p2968
sba(iRequest
Request
p2969
(dp2970
g4
I15531
sg5
I16532
sg6
S'988'
p2971
sba(iRequest
Request
p2972
(dp2973
g4
I25981
sg5
I26982
sg6
S'989'
p2974
sba(iRequest
Request
p2975
(dp2976
g4
I787
sg5
I1788
sg6
S'990'
p2977
sba(iRequest
Request
p2978
(dp2979
g4
I33901
sg5
I34902
sg6
S'991'
p2980
sba(iRequest
Request
p2981
(dp2982
g4
I18266
sg5
I19267
sg6
S'992'
p2983
sba(iRequest
Request
p2984
(dp2985
g4
I31504
sg5
I32505
sg6
S'993'
p2986
sba(iRequest
Request
p2987
(dp2988
g4
I5521
sg5
I6522
sg6
S'994'
p2989
sba(iRequest
Request
p2990
(dp2991
g4
I42131
sg5
I43132
sg6
S'995'
p2992
sba(iRequest
Request
p2993
(dp2994
g4
I18677
sg5
I19678
sg6
S'996'
p2995
sba(iRequest
Request
p2996
(dp2997
g4
I33576
sg5
I34577
sg6
S'997'
p2998
sba(iRequest
Request
p2999
(dp3000
g4
I8944
sg5
I9945
sg6
S'998'
p3001
sba(iRequest
Request
p3002
(dp3003
g4
I38787
sg5
I39788
sg6
S'999'
p3004
sbaa.