(lp0
I78
a(lp1
(iRequest
Request
p2
(dp3
S'start'
p4
I87
sS'end'
p5
I89
sS'name'
p6
S'0'
p7
sba(iRequest
Request
p8
(dp9
g4
I65
sg5
I67
sg6
S'1'
p10
sba(iRequest
Request
p11
(dp12
g4
I6
sg5
I8
sg6
S'2'
p13
sba(iRequest
Request
p14
(dp15
g4
I58
sg5
I60
sg6
S'3'
p16
sba(iRequest
Request
p17
(dp18
g4
I53
sg5
I55
sg6
S'4'
p19
sba(iRequest
Request
p20
(dp21
g4
I93
sg5
I95
sg6
S'5'
p22
sba(iRequest
Request
p23
(dp24
g4
I15
sg5
I17
sg6
S'6'
p25
sba(iRequest
Request
p26
(dp27
g4
I23
sg5
I25
sg6
S'7'
p28
sba(iRequest
Request
p29
(dp30
g4
I90
sg5
I92
sg6
S'8'
p31
sba(iRequest
Request
p32
(dp33
g4
I10
sg5
I12
sg6
S'9'
p34
sba(iRequest
Request
p35
(dp36
g4
I85
sg5
I87
sg6
S'10'
p37
sba(iRequest
Request
p38
(dp39
g4
I23
sg5
I25
sg6
S'11'
p40
sba(iRequest
Request
p41
(dp42
g4
I45
sg5
I47
sg6
S'12'
p43
sba(iRequest
Request
p44
(dp45
g4
I14
sg5
I16
sg6
S'13'
p46
sba(iRequest
Request
p47
(dp48
g4
I77
sg5
I79
sg6
S'14'
p49
sba(iRequest
Request
p50
(dp51
g4
I38
sg5
I40
sg6
S'15'
p52
sba(iRequest
Request
p53
(dp54
g4
I57
sg5
I59
sg6
S'16'
p55
sba(iRequest
Request
p56
(dp57
g4
I46
sg5
I48
sg6
S'17'
p58
sba(iRequest
Request
p59
(dp60
g4
I50
sg5
I52
sg6
S'18'
p61
sba(iRequest
Request
p62
(dp63
g4
I63
sg5
I65
sg6
S'19'
p64
sba(iRequest
Request
p65
(dp66
g4
I30
sg5
I32
sg6
S'20'
p67
sba(iRequest
Request
p68
(dp69
g4
I78
sg5
I80
sg6
S'21'
p70
sba(iRequest
Request
p71
(dp72
g4
I34
sg5
I36
sg6
S'22'
p73
sba(iRequest
Request
p74
(dp75
g4
I95
sg5
I97
sg6
S'23'
p76
sba(iRequest
Request
p77
(dp78
g4
I44
sg5
I46
sg6
S'24'
p79
sba(iRequest
Request
p80
(dp81
g4
I61
sg5
I63
sg6
S'25'
p82
sba(iRequest
Request
p83
(dp84
g4
I5
sg5
I7
sg6
S'26'
p85
sba(iRequest
Request
p86
(dp87
g4
I15
sg5
I17
sg6
S'27'
p88
sba(iRequest
Request
p89
(dp90
g4
I24
sg5
I26
sg6
S'28'
p91
sba(iRequest
Request
p92
(dp93
g4
I47
sg5
I49
sg6
S'29'
p94
sba(iRequest
Request
p95
(dp96
g4
I26
sg5
I28
sg6
S'30'
p97
sba(iRequest
Request
p98
(dp99
g4
I86
sg5
I88
sg6
S'31'
p100
sba(iRequest
Request
p101
(dp102
g4
I77
sg5
I79
sg6
S'32'
p103
sba(iRequest
Request
p104
(dp105
g4
I51
sg5
I53
sg6
S'33'
p106
sba(iRequest
Request
p107
(dp108
g4
I58
sg5
I60
sg6
S'34'
p109
sba(iRequest
Request
p110
(dp111
g4
I91
sg5
I93
sg6
S'35'
p112
sba(iRequest
Request
p113
(dp114
g4
I27
sg5
I29
sg6
S'36'
p115
sba(iRequest
Request
p116
(dp117
g4
I70
sg5
I72
sg6
S'37'
p118
sba(iRequest
Request
p119
(dp120
g4
I48
sg5
I50
sg6
S'38'
p121
sba(iRequest
Request
p122
(dp123
g4
I29
sg5
I31
sg6
S'39'
p124
sba(iRequest
Request
p125
(dp126
g4
I61
sg5
I63
sg6
S'40'
p127
sba(iRequest
Request
p128
(dp129
g4
I91
sg5
I93
sg6
S'41'
p130
sba(iRequest
Request
p131
(dp132
g4
I18
sg5
I20
sg6
S'42'
p133
sba(iRequest
Request
p134
(dp135
g4
I4
sg5
I6
sg6
S'43'
p136
sba(iRequest
Request
p137
(dp138
g4
I96
sg5
I98
sg6
S'44'
p139
sba(iRequest
Request
p140
(dp141
g4
I22
sg5
I24
sg6
S'45'
p142
sba(iRequest
Request
p143
(dp144
g4
I5
sg5
I7
sg6
S'46'
p145
sba(iRequest
Request
p146
(dp147
g4
I37
sg5
I39
sg6
S'47'
p148
sba(iRequest
Request
p149
(dp150
g4
I8
sg5
I10
sg6
S'48'
p151
sba(iRequest
Request
p152
(dp153
g4
I11
sg5
I13
sg6
S'49'
p154
sba(iRequest
Request
p155
(dp156
g4
I8
sg5
I10
sg6
S'50'
p157
sba(iRequest
Request
p158
(dp159
g4
I56
sg5
I58
sg6
S'51'
p160
sba(iRequest
Request
p161
(dp162
g4
I62
sg5
I64
sg6
S'52'
p163
sba(iRequest
Request
p164
(dp165
g4
I83
sg5
I85
sg6
S'53'
p166
sba(iRequest
Request
p167
(dp168
g4
I11
sg5
I13
sg6
S'54'
p169
sba(iRequest
Request
p170
(dp171
g4
I79
sg5
I81
sg6
S'55'
p172
sba(iRequest
Request
p173
(dp174
g4
I85
sg5
I87
sg6
S'56'
p175
sba(iRequest
Request
p176
(dp177
g4
I14
sg5
I16
sg6
S'57'
p178
sba(iRequest
Request
p179
(dp180
g4
I24
sg5
I26
sg6
S'58'
p181
sba(iRequest
Request
p182
(dp183
g4
I63
sg5
I65
sg6
S'59'
p184
sba(iRequest
Request
p185
(dp186
g4
I0
sg5
I2
sg6
S'60'
p187
sba(iRequest
Request
p188
(dp189
g4
I9
sg5
I11
sg6
S'61'
p190
sba(iRequest
Request
p191
(dp192
g4
I77
sg5
I79
sg6
S'62'
p193
sba(iRequest
Request
p194
(dp195
g4
I38
sg5
I40
sg6
S'63'
p196
sba(iRequest
Request
p197
(dp198
g4
I26
sg5
I28
sg6
S'64'
p199
sba(iRequest
Request
p200
(dp201
g4
I97
sg5
I99
sg6
S'65'
p202
sba(iRequest
Request
p203
(dp204
g4
I81
sg5
I83
sg6
S'66'
p205
sba(iRequest
Request
p206
(dp207
g4
I16
sg5
I18
sg6
S'67'
p208
sba(iRequest
Request
p209
(dp210
g4
I40
sg5
I42
sg6
S'68'
p211
sba(iRequest
Request
p212
(dp213
g4
I14
sg5
I16
sg6
S'69'
p214
sba(iRequest
Request
p215
(dp216
g4
I0
sg5
I2
sg6
S'70'
p217
sba(iRequest
Request
p218
(dp219
g4
I17
sg5
I19
sg6
S'71'
p220
sba(iRequest
Request
p221
(dp222
g4
I30
sg5
I32
sg6
S'72'
p223
sba(iRequest
Request
p224
(dp225
g4
I90
sg5
I92
sg6
S'73'
p226
sba(iRequest
Request
p227
(dp228
g4
I72
sg5
I74
sg6
S'74'
p229
sba(iRequest
Request
p230
(dp231
g4
I79
sg5
I81
sg6
S'75'
p232
sba(iRequest
Request
p233
(dp234
g4
I4
sg5
I6
sg6
S'76'
p235
sba(iRequest
Request
p236
(dp237
g4
I98
sg5
I100
sg6
S'77'
p238
sba(iRequest
Request
p239
(dp240
g4
I14
sg5
I16
sg6
S'78'
p241
sba(iRequest
Request
p242
(dp243
g4
I63
sg5
I65
sg6
S'79'
p244
sba(iRequest
Request
p245
(dp246
g4
I50
sg5
I52
sg6
S'80'
p247
sba(iRequest
Request
p248
(dp249
g4
I6
sg5
I8
sg6
S'81'
p250
sba(iRequest
Request
p251
(dp252
g4
I92
sg5
I94
sg6
S'82'
p253
sba(iRequest
Request
p254
(dp255
g4
I85
sg5
I87
sg6
S'83'
p256
sba(iRequest
Request
p257
(dp258
g4
I65
sg5
I67
sg6
S'84'
p259
sba(iRequest
Request
p260
(dp261
g4
I52
sg5
I54
sg6
S'85'
p262
sba(iRequest
Request
p263
(dp264
g4
I18
sg5
I20
sg6
S'86'
p265
sba(iRequest
Request
p266
(dp267
g4
I82
sg5
I84
sg6
S'87'
p268
sba(iRequest
Request
p269
(dp270
g4
I12
sg5
I14
sg6
S'88'
p271
sba(iRequest
Request
p272
(dp273
g4
I50
sg5
I52
sg6
S'89'
p274
sba(iRequest
Request
p275
(dp276
g4
I16
sg5
I18
sg6
S'90'
p277
sba(iRequest
Request
p278
(dp279
g4
I27
sg5
I29
sg6
S'91'
p280
sba(iRequest
Request
p281
(dp282
g4
I27
sg5
I29
sg6
S'92'
p283
sba(iRequest
Request
p284
(dp285
g4
I51
sg5
I53
sg6
S'93'
p286
sba(iRequest
Request
p287
(dp288
g4
I58
sg5
I60
sg6
S'94'
p289
sba(iRequest
Request
p290
(dp291
g4
I13
sg5
I15
sg6
S'95'
p292
sba(iRequest
Request
p293
(dp294
g4
I30
sg5
I32
sg6
S'96'
p295
sba(iRequest
Request
p296
(dp297
g4
I79
sg5
I81
sg6
S'97'
p298
sba(iRequest
Request
p299
(dp300
g4
I95
sg5
I97
sg6
S'98'
p301
sba(iRequest
Request
p302
(dp303
g4
I31
sg5
I33
sg6
S'99'
p304
sbaa.