(lp0
I351
a(lp1
(iRequest
Request
p2
(dp3
S'start'
p4
I28
sS'end'
p5
I33
sS'name'
p6
S'0'
p7
sba(iRequest
Request
p8
(dp9
g4
I353
sg5
I358
sg6
S'1'
p10
sba(iRequest
Request
p11
(dp12
g4
I292
sg5
I295
sg6
S'2'
p13
sba(iRequest
Request
p14
(dp15
g4
I51
sg5
I57
sg6
S'3'
p16
sba(iRequest
Request
p17
(dp18
g4
I216
sg5
I221
sg6
S'4'
p19
sba(iRequest
Request
p20
(dp21
g4
I474
sg5
I481
sg6
S'5'
p22
sba(iRequest
Request
p23
(dp24
g4
I90
sg5
I101
sg6
S'6'
p25
sba(iRequest
Request
p26
(dp27
g4
I328
sg5
I336
sg6
S'7'
p28
sba(iRequest
Request
p29
(dp30
g4
I120
sg5
I123
sg6
S'8'
p31
sba(iRequest
Request
p32
(dp33
g4
I19
sg5
I24
sg6
S'9'
p34
sba(iRequest
Request
p35
(dp36
g4
I113
sg5
I116
sg6
S'10'
p37
sba(iRequest
Request
p38
(dp39
g4
I47
sg5
I52
sg6
S'11'
p40
sba(iRequest
Request
p41
(dp42
g4
I466
sg5
I473
sg6
S'12'
p43
sba(iRequest
Request
p44
(dp45
g4
I58
sg5
I67
sg6
S'13'
p46
sba(iRequest
Request
p47
(dp48
g4
I135
sg5
I139
sg6
S'14'
p49
sba(iRequest
Request
p50
(dp51
g4
I162
sg5
I168
sg6
S'15'
p52
sba(iRequest
Request
p53
(dp54
g4
I116
sg5
I120
sg6
S'16'
p55
sba(iRequest
Request
p56
(dp57
g4
I317
sg5
I326
sg6
S'17'
p58
sba(iRequest
Request
p59
(dp60
g4
I487
sg5
I491
sg6
S'18'
p61
sba(iRequest
Request
p62
(dp63
g4
I483
sg5
I492
sg6
S'19'
p64
sba(iRequest
Request
p65
(dp66
g4
I231
sg5
I236
sg6
S'20'
p67
sba(iRequest
Request
p68
(dp69
g4
I333
sg5
I344
sg6
S'21'
p70
sba(iRequest
Request
p71
(dp72
g4
I329
sg5
I332
sg6
S'22'
p73
sba(iRequest
Request
p74
(dp75
g4
I139
sg5
I141
sg6
S'23'
p76
sba(iRequest
Request
p77
(dp78
g4
I40
sg5
I44
sg6
S'24'
p79
sba(iRequest
Request
p80
(dp81
g4
I472
sg5
I483
sg6
S'25'
p82
sba(iRequest
Request
p83
(dp84
g4
I374
sg5
I376
sg6
S'26'
p85
sba(iRequest
Request
p86
(dp87
g4
I226
sg5
I228
sg6
S'27'
p88
sba(iRequest
Request
p89
(dp90
g4
I129
sg5
I135
sg6
S'28'
p91
sba(iRequest
Request
p92
(dp93
g4
I420
sg5
I430
sg6
S'29'
p94
sba(iRequest
Request
p95
(dp96
g4
I451
sg5
I457
sg6
S'30'
p97
sba(iRequest
Request
p98
(dp99
g4
I405
sg5
I407
sg6
S'31'
p100
sba(iRequest
Request
p101
(dp102
g4
I350
sg5
I352
sg6
S'32'
p103
sba(iRequest
Request
p104
(dp105
g4
I452
sg5
I454
sg6
S'33'
p106
sba(iRequest
Request
p107
(dp108
g4
I450
sg5
I461
sg6
S'34'
p109
sba(iRequest
Request
p110
(dp111
g4
I385
sg5
I393
sg6
S'35'
p112
sba(iRequest
Request
p113
(dp114
g4
I463
sg5
I469
sg6
S'36'
p115
sba(iRequest
Request
p116
(dp117
g4
I347
sg5
I357
sg6
S'37'
p118
sba(iRequest
Request
p119
(dp120
g4
I182
sg5
I192
sg6
S'38'
p121
sba(iRequest
Request
p122
(dp123
g4
I269
sg5
I271
sg6
S'39'
p124
sba(iRequest
Request
p125
(dp126
g4
I326
sg5
I337
sg6
S'40'
p127
sba(iRequest
Request
p128
(dp129
g4
I438
sg5
I441
sg6
S'41'
p130
sba(iRequest
Request
p131
(dp132
g4
I25
sg5
I32
sg6
S'42'
p133
sba(iRequest
Request
p134
(dp135
g4
I0
sg5
I6
sg6
S'43'
p136
sba(iRequest
Request
p137
(dp138
g4
I431
sg5
I437
sg6
S'44'
p139
sba(iRequest
Request
p140
(dp141
g4
I55
sg5
I57
sg6
S'45'
p142
sba(iRequest
Request
p143
(dp144
g4
I145
sg5
I154
sg6
S'46'
p145
sba(iRequest
Request
p146
(dp147
g4
I433
sg5
I443
sg6
S'47'
p148
sba(iRequest
Request
p149
(dp150
g4
I438
sg5
I449
sg6
S'48'
p151
sba(iRequest
Request
p152
(dp153
g4
I185
sg5
I192
sg6
S'49'
p154
sba(iRequest
Request
p155
(dp156
g4
I131
sg5
I142
sg6
S'50'
p157
sba(iRequest
Request
p158
(dp159
g4
I401
sg5
I411
sg6
S'51'
p160
sba(iRequest
Request
p161
(dp162
g4
I180
sg5
I184
sg6
S'52'
p163
sba(iRequest
Request
p164
(dp165
g4
I68
sg5
I75
sg6
S'53'
p166
sba(iRequest
Request
p167
(dp168
g4
I93
sg5
I98
sg6
S'54'
p169
sba(iRequest
Request
p170
(dp171
g4
I12
sg5
I21
sg6
S'55'
p172
sba(iRequest
Request
p173
(dp174
g4
I283
sg5
I289
sg6
S'56'
p175
sba(iRequest
Request
p176
(dp177
g4
I115
sg5
I125
sg6
S'57'
p178
sba(iRequest
Request
p179
(dp180
g4
I386
sg5
I396
sg6
S'58'
p181
sba(iRequest
Request
p182
(dp183
g4
I25
sg5
I30
sg6
S'59'
p184
sba(iRequest
Request
p185
(dp186
g4
I159
sg5
I166
sg6
S'60'
p187
sba(iRequest
Request
p188
(dp189
g4
I106
sg5
I110
sg6
S'61'
p190
sba(iRequest
Request
p191
(dp192
g4
I437
sg5
I445
sg6
S'62'
p193
sba(iRequest
Request
p194
(dp195
g4
I51
sg5
I61
sg6
S'63'
p196
sba(iRequest
Request
p197
(dp198
g4
I112
sg5
I123
sg6
S'64'
p199
sba(iRequest
Request
p200
(dp201
g4
I224
sg5
I235
sg6
S'65'
p202
sba(iRequest
Request
p203
(dp204
g4
I131
sg5
I133
sg6
S'66'
p205
sba(iRequest
Request
p206
(dp207
g4
I368
sg5
I378
sg6
S'67'
p208
sba(iRequest
Request
p209
(dp210
g4
I311
sg5
I313
sg6
S'68'
p211
sba(iRequest
Request
p212
(dp213
g4
I474
sg5
I478
sg6
S'69'
p214
sba(iRequest
Request
p215
(dp216
g4
I489
sg5
I493
sg6
S'70'
p217
sba(iRequest
Request
p218
(dp219
g4
I91
sg5
I98
sg6
S'71'
p220
sba(iRequest
Request
p221
(dp222
g4
I360
sg5
I364
sg6
S'72'
p223
sba(iRequest
Request
p224
(dp225
g4
I398
sg5
I407
sg6
S'73'
p226
sba(iRequest
Request
p227
(dp228
g4
I355
sg5
I361
sg6
S'74'
p229
sba(iRequest
Request
p230
(dp231
g4
I305
sg5
I316
sg6
S'75'
p232
sba(iRequest
Request
p233
(dp234
g4
I416
sg5
I420
sg6
S'76'
p235
sba(iRequest
Request
p236
(dp237
g4
I1
sg5
I6
sg6
S'77'
p238
sba(iRequest
Request
p239
(dp240
g4
I162
sg5
I170
sg6
S'78'
p241
sba(iRequest
Request
p242
(dp243
g4
I237
sg5
I242
sg6
S'79'
p244
sba(iRequest
Request
p245
(dp246
g4
I385
sg5
I395
sg6
S'80'
p247
sba(iRequest
Request
p248
(dp249
g4
I83
sg5
I86
sg6
S'81'
p250
sba(iRequest
Request
p251
(dp252
g4
I348
sg5
I352
sg6
S'82'
p253
sba(iRequest
Request
p254
(dp255
g4
I275
sg5
I284
sg6
S'83'
p256
sba(iRequest
Request
p257
(dp258
g4
I109
sg5
I120
sg6
S'84'
p259
sba(iRequest
Request
p260
(dp261
g4
I360
sg5
I367
sg6
S'85'
p262
sba(iRequest
Request
p263
(dp264
g4
I339
sg5
I349
sg6
S'86'
p265
sba(iRequest
Request
p266
(dp267
g4
I236
sg5
I243
sg6
S'87'
p268
sba(iRequest
Request
p269
(dp270
g4
I166
sg5
I169
sg6
S'88'
p271
sba(iRequest
Request
p272
(dp273
g4
I66
sg5
I68
sg6
S'89'
p274
sba(iRequest
Request
p275
(dp276
g4
I102
sg5
I110
sg6
S'90'
p277
sba(iRequest
Request
p278
(dp279
g4
I467
sg5
I474
sg6
S'91'
p280
sba(iRequest
Request
p281
(dp282
g4
I362
sg5
I368
sg6
S'92'
p283
sba(iRequest
Request
p284
(dp285
g4
I336
sg5
I346
sg6
S'93'
p286
sba(iRequest
Request
p287
(dp288
g4
I47
sg5
I58
sg6
S'94'
p289
sba(iRequest
Request
p290
(dp291
g4
I135
sg5
I142
sg6
S'95'
p292
sba(iRequest
Request
p293
(dp294
g4
I141
sg5
I147
sg6
S'96'
p295
sba(iRequest
Request
p296
(dp297
g4
I107
sg5
I111
sg6
S'97'
p298
sba(iRequest
Request
p299
(dp300
g4
I91
sg5
I98
sg6
S'98'
p301
sba(iRequest
Request
p302
(dp303
g4
I169
sg5
I179
sg6
S'99'
p304
sbaa.