(lp0
I41059
a(lp1
(iRequest
Request
p2
(dp3
S'start'
p4
I25445
sS'end'
p5
I27343
sS'name'
p6
S'0'
p7
sba(iRequest
Request
p8
(dp9
g4
I9737
sg5
I13207
sg6
S'1'
p10
sba(iRequest
Request
p11
(dp12
g4
I24514
sg5
I27836
sg6
S'2'
p13
sba(iRequest
Request
p14
(dp15
g4
I15608
sg5
I24926
sg6
S'3'
p16
sba(iRequest
Request
p17
(dp18
g4
I29583
sg5
I30816
sg6
S'4'
p19
sba(iRequest
Request
p20
(dp21
g4
I20981
sg5
I28261
sg6
S'5'
p22
sba(iRequest
Request
p23
(dp24
g4
I17423
sg5
I18716
sg6
S'6'
p25
sba(iRequest
Request
p26
(dp27
g4
I2129
sg5
I8441
sg6
S'7'
p28
sba(iRequest
Request
p29
(dp30
g4
I28573
sg5
I35801
sg6
S'8'
p31
sba(iRequest
Request
p32
(dp33
g4
I35241
sg5
I41708
sg6
S'9'
p34
sba(iRequest
Request
p35
(dp36
g4
I16502
sg5
I26468
sg6
S'10'
p37
sba(iRequest
Request
p38
(dp39
g4
I4601
sg5
I12100
sg6
S'11'
p40
sba(iRequest
Request
p41
(dp42
g4
I17189
sg5
I18443
sg6
S'12'
p43
sba(iRequest
Request
p44
(dp45
g4
I12998
sg5
I20269
sg6
S'13'
p46
sba(iRequest
Request
p47
(dp48
g4
I15294
sg5
I16592
sg6
S'14'
p49
sba(iRequest
Request
p50
(dp51
g4
I28269
sg5
I33173
sg6
S'15'
p52
sba(iRequest
Request
p53
(dp54
g4
I14475
sg5
I19500
sg6
S'16'
p55
sba(iRequest
Request
p56
(dp57
g4
I5915
sg5
I13303
sg6
S'17'
p58
sba(iRequest
Request
p59
(dp60
g4
I17644
sg5
I23000
sg6
S'18'
p61
sba(iRequest
Request
p62
(dp63
g4
I14643
sg5
I21082
sg6
S'19'
p64
sba(iRequest
Request
p65
(dp66
g4
I10347
sg5
I16800
sg6
S'20'
p67
sba(iRequest
Request
p68
(dp69
g4
I33680
sg5
I40176
sg6
S'21'
p70
sba(iRequest
Request
p71
(dp72
g4
I27100
sg5
I34561
sg6
S'22'
p73
sba(iRequest
Request
p74
(dp75
g4
I20881
sg5
I26498
sg6
S'23'
p76
sba(iRequest
Request
p77
(dp78
g4
I3421
sg5
I10276
sg6
S'24'
p79
sba(iRequest
Request
p80
(dp81
g4
I20337
sg5
I27160
sg6
S'25'
p82
sba(iRequest
Request
p83
(dp84
g4
I9516
sg5
I13715
sg6
S'26'
p85
sba(iRequest
Request
p86
(dp87
g4
I3056
sg5
I8345
sg6
S'27'
p88
sba(iRequest
Request
p89
(dp90
g4
I36663
sg5
I39498
sg6
S'28'
p91
sba(iRequest
Request
p92
(dp93
g4
I3343
sg5
I11168
sg6
S'29'
p94
sba(iRequest
Request
p95
(dp96
g4
I21295
sg5
I27910
sg6
S'30'
p97
sba(iRequest
Request
p98
(dp99
g4
I13159
sg5
I20286
sg6
S'31'
p100
sba(iRequest
Request
p101
(dp102
g4
I30447
sg5
I36371
sg6
S'32'
p103
sba(iRequest
Request
p104
(dp105
g4
I25792
sg5
I33879
sg6
S'33'
p106
sba(iRequest
Request
p107
(dp108
g4
I2661
sg5
I12355
sg6
S'34'
p109
sba(iRequest
Request
p110
(dp111
g4
I1010
sg5
I3120
sg6
S'35'
p112
sba(iRequest
Request
p113
(dp114
g4
I17212
sg5
I23862
sg6
S'36'
p115
sba(iRequest
Request
p116
(dp117
g4
I18412
sg5
I19724
sg6
S'37'
p118
sba(iRequest
Request
p119
(dp120
g4
I20280
sg5
I29678
sg6
S'38'
p121
sba(iRequest
Request
p122
(dp123
g4
I37893
sg5
I43136
sg6
S'39'
p124
sba(iRequest
Request
p125
(dp126
g4
I18799
sg5
I26965
sg6
S'40'
p127
sba(iRequest
Request
p128
(dp129
g4
I16321
sg5
I23882
sg6
S'41'
p130
sba(iRequest
Request
p131
(dp132
g4
I5838
sg5
I6876
sg6
S'42'
p133
sba(iRequest
Request
p134
(dp135
g4
I31610
sg5
I37065
sg6
S'43'
p136
sba(iRequest
Request
p137
(dp138
g4
I36894
sg5
I42946
sg6
S'44'
p139
sba(iRequest
Request
p140
(dp141
g4
I13671
sg5
I17763
sg6
S'45'
p142
sba(iRequest
Request
p143
(dp144
g4
I1838
sg5
I10314
sg6
S'46'
p145
sba(iRequest
Request
p146
(dp147
g4
I23180
sg5
I31318
sg6
S'47'
p148
sba(iRequest
Request
p149
(dp150
g4
I14739
sg5
I24587
sg6
S'48'
p151
sba(iRequest
Request
p152
(dp153
g4
I10170
sg5
I16921
sg6
S'49'
p154
sba(iRequest
Request
p155
(dp156
g4
I22315
sg5
I26942
sg6
S'50'
p157
sba(iRequest
Request
p158
(dp159
g4
I35767
sg5
I40879
sg6
S'51'
p160
sba(iRequest
Request
p161
(dp162
g4
I11949
sg5
I21673
sg6
S'52'
p163
sba(iRequest
Request
p164
(dp165
g4
I29182
sg5
I35360
sg6
S'53'
p166
sba(iRequest
Request
p167
(dp168
g4
I12878
sg5
I22155
sg6
S'54'
p169
sba(iRequest
Request
p170
(dp171
g4
I15738
sg5
I25680
sg6
S'55'
p172
sba(iRequest
Request
p173
(dp174
g4
I899
sg5
I1956
sg6
S'56'
p175
sba(iRequest
Request
p176
(dp177
g4
I27765
sg5
I34329
sg6
S'57'
p178
sba(iRequest
Request
p179
(dp180
g4
I7029
sg5
I14206
sg6
S'58'
p181
sba(iRequest
Request
p182
(dp183
g4
I12227
sg5
I15538
sg6
S'59'
p184
sba(iRequest
Request
p185
(dp186
g4
I33308
sg5
I39082
sg6
S'60'
p187
sba(iRequest
Request
p188
(dp189
g4
I30075
sg5
I35661
sg6
S'61'
p190
sba(iRequest
Request
p191
(dp192
g4
I34200
sg5
I38220
sg6
S'62'
p193
sba(iRequest
Request
p194
(dp195
g4
I32093
sg5
I42042
sg6
S'63'
p196
sba(iRequest
Request
p197
(dp198
g4
I18174
sg5
I25768
sg6
S'64'
p199
sba(iRequest
Request
p200
(dp201
g4
I27817
sg5
I31445
sg6
S'65'
p202
sba(iRequest
Request
p203
(dp204
g4
I23254
sg5
I25961
sg6
S'66'
p205
sba(iRequest
Request
p206
(dp207
g4
I10970
sg5
I18561
sg6
S'67'
p208
sba(iRequest
Request
p209
(dp210
g4
I18808
sg5
I21784
sg6
S'68'
p211
sba(iRequest
Request
p212
(dp213
g4
I16084
sg5
I24615
sg6
S'69'
p214
sba(iRequest
Request
p215
(dp216
g4
I17609
sg5
I21773
sg6
S'70'
p217
sba(iRequest
Request
p218
(dp219
g4
I24663
sg5
I28001
sg6
S'71'
p220
sba(iRequest
Request
p221
(dp222
g4
I3584
sg5
I11807
sg6
S'72'
p223
sba(iRequest
Request
p224
(dp225
g4
I3310
sg5
I5500
sg6
S'73'
p226
sba(iRequest
Request
p227
(dp228
g4
I9338
sg5
I14186
sg6
S'74'
p229
sba(iRequest
Request
p230
(dp231
g4
I14274
sg5
I23410
sg6
S'75'
p232
sba(iRequest
Request
p233
(dp234
g4
I11109
sg5
I18526
sg6
S'76'
p235
sba(iRequest
Request
p236
(dp237
g4
I952
sg5
I7283
sg6
S'77'
p238
sba(iRequest
Request
p239
(dp240
g4
I5023
sg5
I10229
sg6
S'78'
p241
sba(iRequest
Request
p242
(dp243
g4
I30651
sg5
I38473
sg6
S'79'
p244
sba(iRequest
Request
p245
(dp246
g4
I18321
sg5
I21751
sg6
S'80'
p247
sba(iRequest
Request
p248
(dp249
g4
I29943
sg5
I31144
sg6
S'81'
p250
sba(iRequest
Request
p251
(dp252
g4
I31520
sg5
I34359
sg6
S'82'
p253
sba(iRequest
Request
p254
(dp255
g4
I8296
sg5
I12558
sg6
S'83'
p256
sba(iRequest
Request
p257
(dp258
g4
I10351
sg5
I12484
sg6
S'84'
p259
sba(iRequest
Request
p260
(dp261
g4
I22480
sg5
I32377
sg6
S'85'
p262
sba(iRequest
Request
p263
(dp264
g4
I21981
sg5
I26881
sg6
S'86'
p265
sba(iRequest
Request
p266
(dp267
g4
I13514
sg5
I22314
sg6
S'87'
p268
sba(iRequest
Request
p269
(dp270
g4
I33222
sg5
I42702
sg6
S'88'
p271
sba(iRequest
Request
p272
(dp273
g4
I12941
sg5
I15001
sg6
S'89'
p274
sba(iRequest
Request
p275
(dp276
g4
I34145
sg5
I35617
sg6
S'90'
p277
sba(iRequest
Request
p278
(dp279
g4
I25330
sg5
I32268
sg6
S'91'
p280
sba(iRequest
Request
p281
(dp282
g4
I18618
sg5
I23639
sg6
S'92'
p283
sba(iRequest
Request
p284
(dp285
g4
I27939
sg5
I35671
sg6
S'93'
p286
sba(iRequest
Request
p287
(dp288
g4
I8472
sg5
I15471
sg6
S'94'
p289
sba(iRequest
Request
p290
(dp291
g4
I7055
sg5
I12884
sg6
S'95'
p292
sba(iRequest
Request
p293
(dp294
g4
I18021
sg5
I25313
sg6
S'96'
p295
sba(iRequest
Request
p296
(dp297
g4
I29090
sg5
I38116
sg6
S'97'
p298
sba(iRequest
Request
p299
(dp300
g4
I34050
sg5
I37462
sg6
S'98'
p301
sba(iRequest
Request
p302
(dp303
g4
I18662
sg5
I21811
sg6
S'99'
p304
sbaa.