(lp0
I9
a(lp1
(iRequest
Request
p2
(dp3
S'start'
p4
I3
sS'end'
p5
I5
sS'name'
p6
S'0'
p7
sba(iRequest
Request
p8
(dp9
g4
I0
sg5
I2
sg6
S'1'
p10
sba(iRequest
Request
p11
(dp12
g4
I4
sg5
I6
sg6
S'2'
p13
sba(iRequest
Request
p14
(dp15
g4
I3
sg5
I5
sg6
S'3'
p16
sba(iRequest
Request
p17
(dp18
g4
I6
sg5
I8
sg6
S'4'
p19
sba(iRequest
Request
p20
(dp21
g4
I1
sg5
I3
sg6
S'5'
p22
sba(iRequest
Request
p23
(dp24
g4
I8
sg5
I10
sg6
S'6'
p25
sba(iRequest
Request
p26
(dp27
g4
I0
sg5
I2
sg6
S'7'
p28
sba(iRequest
Request
p29
(dp30
g4
I3
sg5
I5
sg6
S'8'
p31
sba(iRequest
Request
p32
(dp33
g4
I5
sg5
I7
sg6
S'9'
p34
sbaa.