(lp0
I50
a(lp1
(iRequest
Request
p2
(dp3
S'start'
p4
I5
sS'end'
p5
I16
sS'name'
p6
S'0'
p7
sba(iRequest
Request
p8
(dp9
g4
I24
sg5
I35
sg6
S'1'
p10
sba(iRequest
Request
p11
(dp12
g4
I2
sg5
I11
sg6
S'2'
p13
sba(iRequest
Request
p14
(dp15
g4
I20
sg5
I22
sg6
S'3'
p16
sba(iRequest
Request
p17
(dp18
g4
I60
sg5
I64
sg6
S'4'
p19
sba(iRequest
Request
p20
(dp21
g4
I66
sg5
I73
sg6
S'5'
p22
sba(iRequest
Request
p23
(dp24
g4
I82
sg5
I91
sg6
S'6'
p25
sba(iRequest
Request
p26
(dp27
g4
I33
sg5
I35
sg6
S'7'
p28
sba(iRequest
Request
p29
(dp30
g4
I10
sg5
I21
sg6
S'8'
p31
sba(iRequest
Request
p32
(dp33
g4
I64
sg5
I67
sg6
S'9'
p34
sbaa.