(lp0
I34
a(lp1
(iRequest
Request
p2
(dp3
S'start'
p4
I17
sS'end'
p5
I19
sS'name'
p6
S'0'
p7
sba(iRequest
Request
p8
(dp9
g4
I48
sg5
I50
sg6
S'1'
p10
sba(iRequest
Request
p11
(dp12
g4
I39
sg5
I43
sg6
S'2'
p13
sba(iRequest
Request
p14
(dp15
g4
I27
sg5
I38
sg6
S'3'
p16
sba(iRequest
Request
p17
(dp18
g4
I11
sg5
I17
sg6
S'4'
p19
sba(iRequest
Request
p20
(dp21
g4
I0
sg5
I3
sg6
S'5'
p22
sba(iRequest
Request
p23
(dp24
g4
I24
sg5
I32
sg6
S'6'
p25
sba(iRequest
Request
p26
(dp27
g4
I23
sg5
I25
sg6
S'7'
p28
sba(iRequest
Request
p29
(dp30
g4
I46
sg5
I48
sg6
S'8'
p31
sba(iRequest
Request
p32
(dp33
g4
I16
sg5
I24
sg6
S'9'
p34
sbaa.